

Microchip MPLAB XC8 Assembler V2.41 build 20230208172133 
                                                                                               Fri Dec 01 20:46:59 2023

Microchip MPLAB XC8 C Compiler v2.41 (Free license) build 20230208172133 Og1 
     1                           	processor	18F4620
     2                           	fnconf	rparam,??,?,0
     3                           	pagewidth 120
     4                           	opt	flic
     5                           	psect	idataCOMRAM,global,class=CODE,delta=1,noexec
     6                           	psect	idataBANK0,global,class=CODE,delta=1,noexec
     7                           	psect	smallconst,global,reloc=2,class=SMALLCONST,delta=1,noexec
     8                           	psect	cinit,global,reloc=2,class=CODE,delta=1
     9                           	psect	bssCOMRAM,global,class=COMRAM,space=1,delta=1,lowdata,noexec
    10                           	psect	dataCOMRAM,global,class=COMRAM,space=1,delta=1,lowdata,noexec
    11                           	psect	dataBANK0,global,class=BANK0,space=1,delta=1,lowdata,noexec
    12                           	psect	cstackCOMRAM,global,class=COMRAM,space=1,delta=1,lowdata,noexec
    13                           	psect	text0,global,reloc=2,class=CODE,delta=1
    14                           	psect	text1,global,reloc=2,class=CODE,delta=1
    15                           	psect	text2,global,reloc=2,class=CODE,delta=1
    16                           	psect	text3,global,reloc=2,class=CODE,delta=1
    17                           	psect	text4,global,reloc=2,class=CODE,delta=1,inline
    18                           	psect	text5,global,reloc=2,class=CODE,delta=1
    19                           	psect	intcode,global,reloc=2,class=CODE,delta=1
    20                           	psect	intcode_body,global,reloc=2,class=CODE,delta=1
    21                           	psect	text7,global,reloc=2,class=CODE,delta=1
    22                           	psect	text8,global,reloc=2,class=CODE,delta=1
    23                           	psect	text9,global,reloc=2,class=CODE,delta=1
    24                           	psect	text10,global,reloc=2,class=CODE,delta=1
    25                           	psect	text11,global,reloc=2,class=CODE,delta=1
    26                           	psect	text12,global,reloc=2,class=CODE,delta=1
    27                           	psect	text13,global,reloc=2,class=CODE,delta=1
    28                           	psect	text14,global,reloc=2,class=CODE,delta=1
    29                           	psect	text15,global,reloc=2,class=CODE,delta=1
    30                           	psect	text16,global,reloc=2,class=CODE,delta=1
    31                           	psect	text17,global,reloc=2,class=CODE,delta=1
    32                           	psect	text18,global,reloc=2,class=CODE,delta=1
    33                           	psect	text19,global,reloc=2,class=CODE,delta=1
    34                           	psect	intsave_regs,global,class=BIGRAM,space=1,delta=1,noexec
    35                           	psect	text20,global,reloc=2,class=CODE,delta=1
    36                           	psect	rparam,global,class=COMRAM,space=1,delta=1,noexec
    37                           	psect	temp,global,ovrld,common,class=COMRAM,space=1,delta=1
    38                           	psect	config,global,abs,ovrld,class=CONFIG,space=4,delta=1,noexec
    39   000000                     
    40                           ; Generated 23/03/2023 GMT
    41                           ; 
    42                           ; Copyright © 2023, Microchip Technology Inc. and its subsidiaries ("Microchip")
    43                           ; All rights reserved.
    44                           ; 
    45                           ; This software is developed by Microchip Technology Inc. and its subsidiaries ("Microch
      +                          ip").
    46                           ; 
    47                           ; Redistribution and use in source and binary forms, with or without modification, are
    48                           ; permitted provided that the following conditions are met:
    49                           ; 
    50                           ;     1. Redistributions of source code must retain the above copyright notice, this lis
      +                          t of
    51                           ;        conditions and the following disclaimer.
    52                           ; 
    53                           ;     2. Redistributions in binary form must reproduce the above copyright notice, this 
      +                          list
    54                           ;        of conditions and the following disclaimer in the documentation and/or other
    55                           ;        materials provided with the distribution. Publication is not required when
    56                           ;        this file is used in an embedded application.
    57                           ; 
    58                           ;     3. Microchip's name may not be used to endorse or promote products derived from th
      +                          is
    59                           ;        software without specific prior written permission.
    60                           ; 
    61                           ; THIS SOFTWARE IS PROVIDED BY MICROCHIP "AS IS" AND ANY EXPRESS OR IMPLIED WARRANTIES,
    62                           ; INCLUDING, BUT NOT LIMITED TO, THE IMPLIED WARRANTIES OF MERCHANTABILITY AND FITNESS F
      +                          OR
    63                           ; PURPOSE ARE DISCLAIMED.  IN NO EVENT SHALL MICROCHIP BE LIABLE FOR ANY DIRECT, INDIREC
      +                          T,
    64                           ; INCIDENTAL, SPECIAL, EXEMPLARY, OR CONSEQUENTIAL DAMAGES (INCLUDING BUT NOT LIMITED TO
    65                           ; PROCUREMENT OF SUBSTITUTE GOODS OR SERVICES; LOSS OF USE, DATA OR PROFITS; OR BUSINESS
    66                           ; INTERRUPTION) HOWSOEVER CAUSED AND ON ANY THEORY OF LIABILITY, WHETHER IN CONTRACT, ST
      +                          RICT
    67                           ; LIABILITY, OR TORT (INCLUDING NEGLIGENCE OR OTHERWISE) ARISING IN ANY WAY OUT OF THE U
      +                          SE OF
    68                           ; THIS SOFTWARE, EVEN IF ADVISED OF THE POSSIBILITY OF SUCH DAMAGE.
    69                           ; 
    70                           ; 
    71                           ; Code-generator required, PIC18F4620 Definitions
    72                           ; 
    73                           ; SFR Addresses
    74   000000                     
    75                           	psect	idataCOMRAM
    76   0015B4                     __pidataCOMRAM:
    77                           	callstack 0
    78                           
    79                           ;initializer for _port_registers
    80   0015B4  80                 	db	128
    81   0015B5  0F                 	db	15
    82   0015B6  81                 	db	129
    83   0015B7  0F                 	db	15
    84   0015B8  82                 	db	130
    85   0015B9  0F                 	db	15
    86   0015BA  83                 	db	131
    87   0015BB  0F                 	db	15
    88   0015BC  84                 	db	132
    89   0015BD  0F                 	db	15
    90                           
    91                           ;initializer for _lat_registers
    92   0015BE  89                 	db	137
    93   0015BF  0F                 	db	15
    94   0015C0  8A                 	db	138
    95   0015C1  0F                 	db	15
    96   0015C2  8B                 	db	139
    97   0015C3  0F                 	db	15
    98   0015C4  8C                 	db	140
    99   0015C5  0F                 	db	15
   100   0015C6  8D                 	db	141
   101   0015C7  0F                 	db	15
   102                           
   103                           ;initializer for _tris_registers
   104   0015C8  92                 	db	146
   105   0015C9  0F                 	db	15
   106   0015CA  93                 	db	147
   107   0015CB  0F                 	db	15
   108   0015CC  94                 	db	148
   109   0015CD  0F                 	db	15
   110   0015CE  95                 	db	149
   111   0015CF  0F                 	db	15
   112   0015D0  96                 	db	150
   113   0015D1  0F                 	db	15
   114                           
   115                           ;initializer for _led1
   116   0015D2  03                 	db	3
   117                           
   118                           ;initializer for _RB7_Flag
   119   0015D3  01                 	db	1
   120                           
   121                           ;initializer for _RB6_Flag
   122   0015D4  01                 	db	1
   123                           
   124                           ;initializer for _RB5_Flag
   125   0015D5  01                 	db	1
   126                           
   127                           ;initializer for _RB4_Flag
   128   0015D6  01                 	db	1
   129                           
   130                           ;initializer for _lcd_1
   131   0015D7  02                 	db	2
   132   0015D8  0A                 	db	10
   133   0015D9  12                 	db	18
   134   0015DA  1A                 	db	26
   135   0015DB  22                 	db	34
   136   0015DC  2A                 	db	42
   137                           
   138                           	psect	idataBANK0
   139   00151A                     __pidataBANK0:
   140                           	callstack 0
   141                           
   142                           ;initializer for _keypad_btn_values
   143   00151A  37                 	db	55
   144   00151B  00                 	db	0
   145   00151C  00                 	db	0
   146   00151D  38                 	db	56
   147   00151E  00                 	db	0
   148   00151F  00                 	db	0
   149   001520  39                 	db	57
   150   001521  00                 	db	0
   151   001522  00                 	db	0
   152   001523  2F                 	db	47
   153   001524  00                 	db	0
   154   001525  00                 	db	0
   155   001526  34                 	db	52
   156   001527  00                 	db	0
   157   001528  00                 	db	0
   158   001529  35                 	db	53
   159   00152A  00                 	db	0
   160   00152B  00                 	db	0
   161   00152C  36                 	db	54
   162   00152D  00                 	db	0
   163   00152E  00                 	db	0
   164   00152F  2A                 	db	42
   165   001530  00                 	db	0
   166   001531  00                 	db	0
   167   001532  31                 	db	49
   168   001533  00                 	db	0
   169   001534  00                 	db	0
   170   001535  32                 	db	50
   171   001536  00                 	db	0
   172   001537  00                 	db	0
   173   001538  33                 	db	51
   174   001539  00                 	db	0
   175   00153A  00                 	db	0
   176   00153B  2B                 	db	43
   177   00153C  00                 	db	0
   178   00153D  00                 	db	0
   179   00153E  23                 	db	35
   180   00153F  00                 	db	0
   181   001540  00                 	db	0
   182   001541  30                 	db	48
   183   001542  00                 	db	0
   184   001543  00                 	db	0
   185   001544  3D                 	db	61
   186   001545  00                 	db	0
   187   001546  00                 	db	0
   188   001547  2D                 	db	45
   189   001548  00                 	db	0
   190   001549  00                 	db	0
   191                           
   192                           ;initializer for _lcd_2
   193   00154A  32                 	db	50
   194   00154B  3A                 	db	58
   195   00154C  03                 	db	3
   196   00154D  0B                 	db	11
   197   00154E  13                 	db	19
   198   00154F  1B                 	db	27
   199   001550  23                 	db	35
   200   001551  2B                 	db	43
   201   001552  33                 	db	51
   202   001553  3B                 	db	59
   203   000000                     _TMR3L	set	4018
   204   000000                     _TMR3H	set	4019
   205   000000                     _TMR1L	set	4046
   206   000000                     _TMR1H	set	4047
   207   000000                     _TMR0L	set	4054
   208   000000                     _TMR0H	set	4055
   209   000000                     _INTCON2bits	set	4081
   210   000000                     _EECON2	set	4007
   211   000000                     _ADCON1bits	set	4033
   212   000000                     _ADRESL	set	4035
   213   000000                     _ADRESH	set	4036
   214   000000                     _INTCONbits	set	4082
   215   000000                     _TRISD	set	3989
   216   000000                     _TRISC	set	3988
   217   000000                     _TRISB	set	3987
   218   000000                     _TRISE	set	3990
   219   000000                     _PORTBbits	set	3969
   220   000000                     _PIE1bits	set	3997
   221   000000                     _ADCON2bits	set	4032
   222   000000                     _ADCON0bits	set	4034
   223   000000                     _PORTE	set	3972
   224   000000                     _PORTD	set	3971
   225   000000                     _PORTC	set	3970
   226   000000                     _PORTB	set	3969
   227   000000                     _PORTA	set	3968
   228   000000                     _LATA	set	3977
   229   000000                     _TRISA	set	3986
   230   000000                     _PIE2bits	set	4000
   231   000000                     _EECON1bits	set	4006
   232   000000                     _EEDATA	set	4008
   233   000000                     _EEADR	set	4009
   234   000000                     _EEADRH	set	4010
   235   000000                     _PIR1bits	set	3998
   236   000000                     _T2CONbits	set	4042
   237   000000                     _T1CONbits	set	4045
   238   000000                     _T0CONbits	set	4053
   239   000000                     _INTCON3bits	set	4080
   240   000000                     _T3CONbits	set	4017
   241   000000                     _LATE	set	3981
   242   000000                     _LATD	set	3980
   243   000000                     _LATC	set	3979
   244   000000                     _LATB	set	3978
   245   000000                     _PIR2bits	set	4001
   246   000000                     _TMR2	set	4044
   247                           
   248                           	psect	smallconst
   249   001000                     __psmallconst:
   250                           	callstack 0
   251   001000  00                 	db	0
   252   001001                     STR_1:
   253   001001  2F                 	db	47
   254   001002  30                 	db	48	;'0'
   255   001003  00                 	db	0
   256   001004                     STR_2:
   257   001004  25                 	db	37
   258   001005  69                 	db	105	;'i'
   259   001006  00                 	db	0
   260   001007  00                 	db	0	; dummy byte at the end
   261   000000                     
   262                           ; #config settings
   263                           
   264                           	psect	cinit
   265   0014C4                     __pcinit:
   266                           	callstack 0
   267   0014C4                     start_initialization:
   268                           	callstack 0
   269   0014C4                     __initialization:
   270                           	callstack 0
   271                           
   272                           ; Initialize objects allocated to BANK0 (58 bytes)
   273                           ; load TBLPTR registers with __pidataBANK0
   274   0014C4  0E1A               	movlw	low __pidataBANK0
   275   0014C6  6EF6               	movwf	tblptrl,c
   276   0014C8  0E15               	movlw	high __pidataBANK0
   277   0014CA  6EF7               	movwf	tblptrh,c
   278   0014CC  0E00               	movlw	low (__pidataBANK0 shr (0+16))
   279   0014CE  6EF8               	movwf	tblptru,c
   280   0014D0  EE00  F080         	lfsr	0,__pdataBANK0
   281   0014D4  EE10 F03A          	lfsr	1,58
   282   0014D8                     copy_data0:
   283   0014D8  0009               	tblrd		*+
   284   0014DA  CFF5 FFEE          	movff	tablat,postinc0
   285   0014DE  50E5               	movf	postdec1,w,c
   286   0014E0  50E1               	movf	fsr1l,w,c
   287   0014E2  E1FA               	bnz	copy_data0
   288                           
   289                           ; Initialize objects allocated to COMRAM (41 bytes)
   290                           ; load TBLPTR registers with __pidataCOMRAM
   291   0014E4  0EB4               	movlw	low __pidataCOMRAM
   292   0014E6  6EF6               	movwf	tblptrl,c
   293   0014E8  0E15               	movlw	high __pidataCOMRAM
   294   0014EA  6EF7               	movwf	tblptrh,c
   295   0014EC  0E00               	movlw	low (__pidataCOMRAM shr (0+16))
   296   0014EE  6EF8               	movwf	tblptru,c
   297   0014F0  EE00  F040         	lfsr	0,__pdataCOMRAM
   298   0014F4  EE10 F029          	lfsr	1,41
   299   0014F8                     copy_data1:
   300   0014F8  0009               	tblrd		*+
   301   0014FA  CFF5 FFEE          	movff	tablat,postinc0
   302   0014FE  50E5               	movf	postdec1,w,c
   303   001500  50E1               	movf	fsr1l,w,c
   304   001502  E1FA               	bnz	copy_data1
   305                           
   306                           ; Clear objects allocated to COMRAM (63 bytes)
   307   001504  EE00  F001         	lfsr	0,__pbssCOMRAM
   308   001508  0E3F               	movlw	63
   309   00150A                     clear_0:
   310   00150A  6AEE               	clrf	postinc0,c
   311   00150C  06E8               	decf	wreg,f,c
   312   00150E  E1FD               	bnz	clear_0
   313   001510                     end_of_initialization:
   314                           	callstack 0
   315   001510                     __end_of__initialization:
   316                           	callstack 0
   317   001510  9079               	bcf	int$flags,0,c	;clear compiler interrupt flag (level 1)
   318   001512  9279               	bcf	int$flags,1,c	;clear compiler interrupt flag (level 2)
   319   001514  0100               	movlb	0
   320   001516  EFEF  F00A         	goto	_main	;jump to C main() function
   321                           
   322                           	psect	bssCOMRAM
   323   000001                     __pbssCOMRAM:
   324                           	callstack 0
   325   000001                     	ds	6
   326   000007                     _timer3_preload:
   327                           	callstack 0
   328   000007                     	ds	2
   329   000009                     _TMR3_Interrupt_Hundeler:
   330                           	callstack 0
   331   000009                     	ds	2
   332   00000B                     _TMR2_Interrupt_Hundeler:
   333                           	callstack 0
   334   00000B                     	ds	2
   335   00000D                     _timer3_flag:
   336                           	callstack 0
   337   00000D                     	ds	2
   338   00000F                     _timer1_preload:
   339                           	callstack 0
   340   00000F                     	ds	2
   341   000011                     _TMR1_Interrupt_Hundeler:
   342                           	callstack 0
   343   000011                     	ds	2
   344   000013                     _timer0_preload:
   345                           	callstack 0
   346   000013                     	ds	2
   347   000015                     _TMR0_Interrupt_Hundeler:
   348                           	callstack 0
   349   000015                     	ds	2
   350   000017                     _RB7_Interrupt_Handular_LOW:
   351                           	callstack 0
   352   000017                     	ds	2
   353   000019                     _RB7_Interrupt_Handular_HIGH:
   354                           	callstack 0
   355   000019                     	ds	2
   356   00001B                     _RB6_Interrupt_Handular_LOW:
   357                           	callstack 0
   358   00001B                     	ds	2
   359   00001D                     _RB6_Interrupt_Handular_HIGH:
   360                           	callstack 0
   361   00001D                     	ds	2
   362   00001F                     _RB5_Interrupt_Handular_LOW:
   363                           	callstack 0
   364   00001F                     	ds	2
   365   000021                     _RB5_Interrupt_Handular_HIGH:
   366                           	callstack 0
   367   000021                     	ds	2
   368   000023                     _RB4_Interrupt_Handular_LOW:
   369                           	callstack 0
   370   000023                     	ds	2
   371   000025                     _RB4_Interrupt_Handular_HIGH:
   372                           	callstack 0
   373   000025                     	ds	2
   374   000027                     _INT2_Interrupt_Handular:
   375                           	callstack 0
   376   000027                     	ds	2
   377   000029                     _INT1_Interrupt_Handular:
   378                           	callstack 0
   379   000029                     	ds	2
   380   00002B                     _INT0_Interrupt_Handular:
   381                           	callstack 0
   382   00002B                     	ds	2
   383   00002D                     _ADC_Interrupt_Handular:
   384                           	callstack 0
   385   00002D                     	ds	2
   386   00002F                     _timer2_preloaded:
   387                           	callstack 0
   388   00002F                     	ds	1
   389   000030                     Relay_Turn_OFF@F3052:
   390                           	callstack 0
   391   000030                     	ds	1
   392   000031                     Relay_Turn_ON@F3047:
   393                           	callstack 0
   394   000031                     	ds	1
   395   000032                     Relay_Initialize@F3042:
   396                           	callstack 0
   397   000032                     	ds	1
   398   000033                     led_toggle@F3063:
   399                           	callstack 0
   400   000033                     	ds	1
   401   000034                     led_turn_off@F3058:
   402                           	callstack 0
   403   000034                     	ds	1
   404   000035                     led_turn_on@F3053:
   405                           	callstack 0
   406   000035                     	ds	1
   407   000036                     led_initialize@F3048:
   408                           	callstack 0
   409   000036                     	ds	1
   410   000037                     _counter3_object:
   411                           	callstack 0
   412   000037                     	ds	7
   413   00003E                     _counter3_flag:
   414                           	callstack 0
   415   00003E                     	ds	2
   416                           
   417                           	psect	dataCOMRAM
   418   000040                     __pdataCOMRAM:
   419                           	callstack 0
   420   000040                     _port_registers:
   421                           	callstack 0
   422   000040                     	ds	10
   423   00004A                     _lat_registers:
   424                           	callstack 0
   425   00004A                     	ds	10
   426   000054                     _tris_registers:
   427                           	callstack 0
   428   000054                     	ds	10
   429   00005E                     _led1:
   430                           	callstack 0
   431   00005E                     	ds	1
   432   00005F                     _RB7_Flag:
   433                           	callstack 0
   434   00005F                     	ds	1
   435   000060                     _RB6_Flag:
   436                           	callstack 0
   437   000060                     	ds	1
   438   000061                     _RB5_Flag:
   439                           	callstack 0
   440   000061                     	ds	1
   441   000062                     _RB4_Flag:
   442                           	callstack 0
   443   000062                     	ds	1
   444   000063                     _lcd_1:
   445                           	callstack 0
   446   000063                     	ds	6
   447                           
   448                           	psect	dataBANK0
   449   000080                     __pdataBANK0:
   450                           	callstack 0
   451   000080                     _keypad_btn_values:
   452                           	callstack 0
   453   000080                     	ds	48
   454   0000B0                     _lcd_2:
   455                           	callstack 0
   456   0000B0                     	ds	10
   457                           
   458                           	psect	cstackCOMRAM
   459   000069                     __pcstackCOMRAM:
   460                           	callstack 0
   461   000069                     RB4_ISR@source:
   462                           	callstack 0
   463   000069                     RB5_ISR@source:
   464                           	callstack 0
   465   000069                     RB6_ISR@source:
   466                           	callstack 0
   467   000069                     RB7_ISR@source:
   468                           	callstack 0
   469                           
   470                           ; 1 bytes @ 0x0
   471   000069                     	ds	1
   472   00006A                     ??_Interrupt_Manager:
   473                           
   474                           ; 1 bytes @ 0x1
   475   00006A                     	ds	2
   476   00006C                     Timer3_Read_Value@timer3:
   477                           	callstack 0
   478   00006C                     Timer3_Mode_Select@timer3:
   479                           	callstack 0
   480                           
   481                           ; 2 bytes @ 0x3
   482   00006C                     	ds	2
   483   00006E                     Timer3_Init@timer3:
   484                           	callstack 0
   485   00006E                     Timer3_Read_Value@value:
   486                           	callstack 0
   487                           
   488                           ; 2 bytes @ 0x5
   489   00006E                     	ds	2
   490   000070                     ??_Timer3_Init:
   491   000070                     ??_Timer3_Read_Value:
   492                           
   493                           ; 1 bytes @ 0x7
   494   000070                     	ds	2
   495   000072                     Timer3_Read_Value@ret:
   496                           	callstack 0
   497   000072                     timer3_timer_init@timer3_object:
   498                           	callstack 0
   499                           
   500                           ; 7 bytes @ 0x9
   501   000072                     	ds	1
   502   000073                     Timer3_Read_Value@l_tmr3l:
   503                           	callstack 0
   504                           
   505                           ; 1 bytes @ 0xA
   506   000073                     	ds	1
   507   000074                     Timer3_Read_Value@l_tmr3h:
   508                           	callstack 0
   509                           
   510                           ; 1 bytes @ 0xB
   511   000074                     	ds	5
   512   000079                     
   513                           ; 1 bytes @ 0x10
   514 ;;
   515 ;;Main: autosize = 0, tempsize = 0, incstack = 0, save=0
   516 ;;
   517 ;; *************** function _main *****************
   518 ;; Defined at:
   519 ;;		line 42 in file "application.c"
   520 ;; Parameters:    Size  Location     Type
   521 ;;		None
   522 ;; Auto vars:     Size  Location     Type
   523 ;;  ret             1    0        unsigned char 
   524 ;; Return value:  Size  Location     Type
   525 ;;                  2  1041[None  ] int 
   526 ;; Registers used:
   527 ;;		wreg, fsr2l, fsr2h, status,2, status,0, cstack
   528 ;; Tracked objects:
   529 ;;		On entry : 0/0
   530 ;;		On exit  : 0/0
   531 ;;		Unchanged: 0/0
   532 ;; Data sizes:     COMRAM   BANK0   BANK1   BANK2   BANK3   BANK4   BANK5   BANK6   BANK7   BANK8   BANK9  BANK10  BANK1
      +1  BANK12  BANK13  BANK14  BANK15
   533 ;;      Params:         0       0       0       0       0       0       0       0       0       0       0       0       
      +0       0       0       0       0
   534 ;;      Locals:         0       0       0       0       0       0       0       0       0       0       0       0       
      +0       0       0       0       0
   535 ;;      Temps:          0       0       0       0       0       0       0       0       0       0       0       0       
      +0       0       0       0       0
   536 ;;      Totals:         0       0       0       0       0       0       0       0       0       0       0       0       
      +0       0       0       0       0
   537 ;;Total ram usage:        0 bytes
   538 ;; Hardware stack levels required when called: 6
   539 ;; This function calls:
   540 ;;		_Timer3_Read_Value
   541 ;;		_timer3_counter_init
   542 ;;		_timer3_timer_init
   543 ;; This function is called by:
   544 ;;		Startup code after reset
   545 ;; This function uses a non-reentrant model
   546 ;;
   547                           
   548                           	psect	text0
   549   0015DE                     __ptext0:
   550                           	callstack 0
   551   0015DE                     _main:
   552                           	callstack 25
   553   0015DE                     
   554                           ;application.c: 47: timer3_counter_init();
   555   0015DE  ECC5  F00A         	call	_timer3_counter_init	;wreg free
   556   0015E2                     
   557                           ;application.c: 48: timer3_timer_init();
   558   0015E2  EC01  F00B         	call	_timer3_timer_init	;wreg free
   559   0015E6                     l4499:
   560   0015E6  0E37               	movlw	low _counter3_object
   561   0015E8  6E6C               	movwf	Timer3_Read_Value@timer3^0,c
   562   0015EA  0E00               	movlw	high _counter3_object
   563   0015EC  6E6D               	movwf	(Timer3_Read_Value@timer3+1)^0,c
   564   0015EE  0E3E               	movlw	low _counter3_flag
   565   0015F0  6E6E               	movwf	Timer3_Read_Value@value^0,c
   566   0015F2  0E00               	movlw	high _counter3_flag
   567   0015F4  6E6F               	movwf	(Timer3_Read_Value@value+1)^0,c
   568   0015F6  EC30  F00A         	call	_Timer3_Read_Value	;wreg free
   569   0015FA  EFF3  F00A         	goto	l4499
   570   0015FE  EF07  F000         	goto	start
   571   001602                     __end_of_main:
   572                           	callstack 0
   573                           
   574 ;; *************** function _timer3_timer_init *****************
   575 ;; Defined at:
   576 ;;		line 21 in file "application.c"
   577 ;; Parameters:    Size  Location     Type
   578 ;;		None
   579 ;; Auto vars:     Size  Location     Type
   580 ;;  timer3_objec    7    9[COMRAM] struct .
   581 ;; Return value:  Size  Location     Type
   582 ;;                  1    wreg      void 
   583 ;; Registers used:
   584 ;;		wreg, fsr2l, fsr2h, status,2, status,0, cstack
   585 ;; Tracked objects:
   586 ;;		On entry : 0/0
   587 ;;		On exit  : 0/0
   588 ;;		Unchanged: 0/0
   589 ;; Data sizes:     COMRAM   BANK0   BANK1   BANK2   BANK3   BANK4   BANK5   BANK6   BANK7   BANK8   BANK9  BANK10  BANK1
      +1  BANK12  BANK13  BANK14  BANK15
   590 ;;      Params:         0       0       0       0       0       0       0       0       0       0       0       0       
      +0       0       0       0       0
   591 ;;      Locals:         7       0       0       0       0       0       0       0       0       0       0       0       
      +0       0       0       0       0
   592 ;;      Temps:          0       0       0       0       0       0       0       0       0       0       0       0       
      +0       0       0       0       0
   593 ;;      Totals:         7       0       0       0       0       0       0       0       0       0       0       0       
      +0       0       0       0       0
   594 ;;Total ram usage:        7 bytes
   595 ;; Hardware stack levels used: 1
   596 ;; Hardware stack levels required when called: 5
   597 ;; This function calls:
   598 ;;		_Timer3_Init
   599 ;; This function is called by:
   600 ;;		_main
   601 ;; This function uses a non-reentrant model
   602 ;;
   603                           
   604                           	psect	text1
   605   001602                     __ptext1:
   606                           	callstack 0
   607   001602                     _timer3_timer_init:
   608                           	callstack 25
   609   001602                     
   610                           ;application.c: 22: timer3_config_t timer3_object;;application.c: 23: timer3_object.TMR3
      +                          _Interrupt_Hundeler = Timer3_Defualt_Interrupt_Hundeller;
   611   001602  0EAC               	movlw	low _Timer3_Defualt_Interrupt_Hundeller
   612   001604  6E72               	movwf	timer3_timer_init@timer3_object^0,c
   613   001606  0E16               	movlw	high _Timer3_Defualt_Interrupt_Hundeller
   614   001608  6E73               	movwf	(timer3_timer_init@timer3_object+1)^0,c
   615   00160A                     
   616                           ;application.c: 24: timer3_object.Timer_priority = Interrupt_Periority_LOW,
   617   00160A  0E00               	movlw	0
   618   00160C  6E74               	movwf	(timer3_timer_init@timer3_object+2)^0,c
   619   00160E  9075               	bcf	(timer3_timer_init@timer3_object+3)^0,0,c
   620   001610                     
   621                           ;application.c: 26: timer3_object.timer3_prescaller = 3;
   622   001610  0E18               	movlw	24
   623   001612  1278               	iorwf	(timer3_timer_init@timer3_object+6)^0,f,c
   624   001614                     
   625                           ;application.c: 27: timer3_object.timer3_register_wr_mode = 1 ;
   626   001614  8475               	bsf	(timer3_timer_init@timer3_object+3)^0,2,c
   627   001616                     
   628                           ;application.c: 28: Timer3_Init(&timer3_object);
   629   001616  0E72               	movlw	low timer3_timer_init@timer3_object
   630   001618  6E6E               	movwf	Timer3_Init@timer3^0,c
   631   00161A  0E00               	movlw	high timer3_timer_init@timer3_object
   632   00161C  6E6F               	movwf	(Timer3_Init@timer3+1)^0,c
   633   00161E  EC9F  F009         	call	_Timer3_Init	;wreg free
   634   001622  0012               	return		;funcret
   635   001624                     __end_of_timer3_timer_init:
   636                           	callstack 0
   637                           
   638 ;; *************** function _timer3_counter_init *****************
   639 ;; Defined at:
   640 ;;		line 31 in file "application.c"
   641 ;; Parameters:    Size  Location     Type
   642 ;;		None
   643 ;; Auto vars:     Size  Location     Type
   644 ;;		None
   645 ;; Return value:  Size  Location     Type
   646 ;;                  1    wreg      void 
   647 ;; Registers used:
   648 ;;		wreg, fsr2l, fsr2h, status,2, status,0, cstack
   649 ;; Tracked objects:
   650 ;;		On entry : 0/0
   651 ;;		On exit  : 0/0
   652 ;;		Unchanged: 0/0
   653 ;; Data sizes:     COMRAM   BANK0   BANK1   BANK2   BANK3   BANK4   BANK5   BANK6   BANK7   BANK8   BANK9  BANK10  BANK1
      +1  BANK12  BANK13  BANK14  BANK15
   654 ;;      Params:         0       0       0       0       0       0       0       0       0       0       0       0       
      +0       0       0       0       0
   655 ;;      Locals:         0       0       0       0       0       0       0       0       0       0       0       0       
      +0       0       0       0       0
   656 ;;      Temps:          0       0       0       0       0       0       0       0       0       0       0       0       
      +0       0       0       0       0
   657 ;;      Totals:         0       0       0       0       0       0       0       0       0       0       0       0       
      +0       0       0       0       0
   658 ;;Total ram usage:        0 bytes
   659 ;; Hardware stack levels used: 1
   660 ;; Hardware stack levels required when called: 5
   661 ;; This function calls:
   662 ;;		_Timer3_Init
   663 ;; This function is called by:
   664 ;;		_main
   665 ;; This function uses a non-reentrant model
   666 ;;
   667                           
   668                           	psect	text2
   669   00158A                     __ptext2:
   670                           	callstack 0
   671   00158A                     _timer3_counter_init:
   672                           	callstack 25
   673   00158A                     
   674                           ;application.c: 32: counter3_object.TMR3_Interrupt_Hundeler = ((void*)0);
   675   00158A  0E00               	movlw	0
   676   00158C  6E37               	movwf	_counter3_object^0,c
   677   00158E  0E00               	movlw	0
   678   001590  6E38               	movwf	(_counter3_object+1)^0,c
   679   001592                     
   680                           ;application.c: 33: counter3_object.timer3_mode = (T3CONbits.TMR3CS = 1);
   681   001592  82B1               	bsf	177,1,c	;volatile
   682   001594  803A               	bsf	(_counter3_object+3)^0,0,c
   683   001596                     
   684                           ;application.c: 34: counter3_object.timer3_prescaller = 0;
   685   001596  0EE7               	movlw	-25
   686   001598  163D               	andwf	(_counter3_object+6)^0,f,c
   687   00159A                     
   688                           ;application.c: 35: counter3_object.timer3_preload_value =0 ;
   689   00159A  0E00               	movlw	0
   690   00159C  6E3C               	movwf	(_counter3_object+5)^0,c
   691   00159E  0E00               	movlw	0
   692   0015A0  6E3B               	movwf	(_counter3_object+4)^0,c
   693   0015A2                     
   694                           ;application.c: 36: counter3_object.timer3_register_wr_mode = 1 ;
   695   0015A2  843A               	bsf	(_counter3_object+3)^0,2,c
   696   0015A4                     
   697                           ;application.c: 37: counter3_object.timer3_counter_mode = 0;
   698   0015A4  923A               	bcf	(_counter3_object+3)^0,1,c
   699   0015A6                     
   700                           ;application.c: 38: Timer3_Init(&counter3_object);
   701   0015A6  0E37               	movlw	low _counter3_object
   702   0015A8  6E6E               	movwf	Timer3_Init@timer3^0,c
   703   0015AA  0E00               	movlw	high _counter3_object
   704   0015AC  6E6F               	movwf	(Timer3_Init@timer3+1)^0,c
   705   0015AE  EC9F  F009         	call	_Timer3_Init	;wreg free
   706   0015B2  0012               	return		;funcret
   707   0015B4                     __end_of_timer3_counter_init:
   708                           	callstack 0
   709                           
   710 ;; *************** function _Timer3_Init *****************
   711 ;; Defined at:
   712 ;;		line 17 in file "MCAL_Layer/Timer3/hal_timer3.c"
   713 ;; Parameters:    Size  Location     Type
   714 ;;  timer3          2    5[COMRAM] PTR const struct .
   715 ;;		 -> counter3_object(7), timer3_timer_init@timer3_object(7), 
   716 ;; Auto vars:     Size  Location     Type
   717 ;;  ret             1    0        unsigned char 
   718 ;; Return value:  Size  Location     Type
   719 ;;                  1    wreg      unsigned char 
   720 ;; Registers used:
   721 ;;		wreg, fsr2l, fsr2h, status,2, status,0, cstack
   722 ;; Tracked objects:
   723 ;;		On entry : 0/0
   724 ;;		On exit  : 0/0
   725 ;;		Unchanged: 0/0
   726 ;; Data sizes:     COMRAM   BANK0   BANK1   BANK2   BANK3   BANK4   BANK5   BANK6   BANK7   BANK8   BANK9  BANK10  BANK1
      +1  BANK12  BANK13  BANK14  BANK15
   727 ;;      Params:         2       0       0       0       0       0       0       0       0       0       0       0       
      +0       0       0       0       0
   728 ;;      Locals:         0       0       0       0       0       0       0       0       0       0       0       0       
      +0       0       0       0       0
   729 ;;      Temps:          2       0       0       0       0       0       0       0       0       0       0       0       
      +0       0       0       0       0
   730 ;;      Totals:         4       0       0       0       0       0       0       0       0       0       0       0       
      +0       0       0       0       0
   731 ;;Total ram usage:        4 bytes
   732 ;; Hardware stack levels used: 1
   733 ;; Hardware stack levels required when called: 4
   734 ;; This function calls:
   735 ;;		_Timer3_Mode_Select
   736 ;; This function is called by:
   737 ;;		_timer3_timer_init
   738 ;;		_timer3_counter_init
   739 ;; This function uses a non-reentrant model
   740 ;;
   741                           
   742                           	psect	text3
   743   00133E                     __ptext3:
   744                           	callstack 0
   745   00133E                     _Timer3_Init:
   746                           	callstack 25
   747   00133E                     
   748                           ;MCAL_Layer/Timer3/hal_timer3.c: 19: if(timer3 == ((void*)0)){
   749   00133E  506E               	movf	Timer3_Init@timer3^0,w,c
   750   001340  106F               	iorwf	(Timer3_Init@timer3+1)^0,w,c
   751   001342  A4D8               	btfss	status,2,c
   752   001344  EFA6  F009         	goto	u2401
   753   001348  EFA8  F009         	goto	u2400
   754   00134C                     u2401:
   755   00134C  EFAA  F009         	goto	l1112
   756   001350                     u2400:
   757   001350                     
   758                           ;MCAL_Layer/Timer3/hal_timer3.c: 21: }
   759   001350  EFF0  F009         	goto	l1114
   760   001354                     l1112:
   761                           
   762                           ;MCAL_Layer/Timer3/hal_timer3.c: 23: (T3CONbits.TMR3ON = 0) ;
   763   001354  90B1               	bcf	177,0,c	;volatile
   764   001356                     
   765                           ;MCAL_Layer/Timer3/hal_timer3.c: 24: (T3CONbits.T3CKPS = timer3->timer3_prescaller);
   766   001356  EE20 F006          	lfsr	2,6
   767   00135A  506E               	movf	Timer3_Init@timer3^0,w,c
   768   00135C  26D9               	addwf	fsr2l,f,c
   769   00135E  506F               	movf	(Timer3_Init@timer3+1)^0,w,c
   770   001360  22DA               	addwfc	fsr2h,f,c
   771   001362  30DF               	rrcf	223,w,c
   772   001364  32E8               	rrcf	wreg,f,c
   773   001366  32E8               	rrcf	wreg,f,c
   774   001368  0B03               	andlw	3
   775   00136A  6E70               	movwf	??_Timer3_Init^0,c
   776   00136C  3A70               	swapf	??_Timer3_Init^0,f,c
   777   00136E  50B1               	movf	177,w,c	;volatile
   778   001370  1870               	xorwf	??_Timer3_Init^0,w,c
   779   001372  0BCF               	andlw	-49
   780   001374  1870               	xorwf	??_Timer3_Init^0,w,c
   781   001376  6EB1               	movwf	177,c	;volatile
   782   001378                     
   783                           ;MCAL_Layer/Timer3/hal_timer3.c: 25: Timer3_Mode_Select(timer3);
   784   001378  C06E  F06C         	movff	Timer3_Init@timer3,Timer3_Mode_Select@timer3
   785   00137C  C06F  F06D         	movff	Timer3_Init@timer3+1,Timer3_Mode_Select@timer3+1
   786   001380  ECF1  F009         	call	_Timer3_Mode_Select	;wreg free
   787   001384                     
   788                           ;MCAL_Layer/Timer3/hal_timer3.c: 26: TMR3H = (timer3->timer3_preload_value) >> 8;
   789   001384  EE20 F004          	lfsr	2,4
   790   001388  506E               	movf	Timer3_Init@timer3^0,w,c
   791   00138A  26D9               	addwf	fsr2l,f,c
   792   00138C  506F               	movf	(Timer3_Init@timer3+1)^0,w,c
   793   00138E  22DA               	addwfc	fsr2h,f,c
   794   001390  CFDE F070          	movff	postinc2,??_Timer3_Init
   795   001394  CFDD F071          	movff	postdec2,??_Timer3_Init+1
   796   001398  C071  F070         	movff	??_Timer3_Init+1,??_Timer3_Init
   797   00139C  6A71               	clrf	(??_Timer3_Init+1)^0,c
   798   00139E  5070               	movf	??_Timer3_Init^0,w,c
   799   0013A0  6EB3               	movwf	179,c	;volatile
   800   0013A2                     
   801                           ;MCAL_Layer/Timer3/hal_timer3.c: 27: TMR3L = (uint_8)(timer3->timer3_preload_value);
   802   0013A2  EE20 F004          	lfsr	2,4
   803   0013A6  506E               	movf	Timer3_Init@timer3^0,w,c
   804   0013A8  26D9               	addwf	fsr2l,f,c
   805   0013AA  506F               	movf	(Timer3_Init@timer3+1)^0,w,c
   806   0013AC  22DA               	addwfc	fsr2h,f,c
   807   0013AE  50DF               	movf	indf2,w,c
   808   0013B0  6EB2               	movwf	178,c	;volatile
   809   0013B2                     
   810                           ;MCAL_Layer/Timer3/hal_timer3.c: 28: timer3_preload = timer3->timer3_preload_value;
   811   0013B2  EE20 F004          	lfsr	2,4
   812   0013B6  506E               	movf	Timer3_Init@timer3^0,w,c
   813   0013B8  26D9               	addwf	fsr2l,f,c
   814   0013BA  506F               	movf	(Timer3_Init@timer3+1)^0,w,c
   815   0013BC  22DA               	addwfc	fsr2h,f,c
   816   0013BE  CFDE F007          	movff	postinc2,_timer3_preload
   817   0013C2  CFDD F008          	movff	postdec2,_timer3_preload+1
   818   0013C6                     
   819                           ;MCAL_Layer/Timer3/hal_timer3.c: 30:   (PIE2bits.TMR3IE = 1);
   820   0013C6  82A0               	bsf	160,1,c	;volatile
   821   0013C8                     
   822                           ;MCAL_Layer/Timer3/hal_timer3.c: 31:   (PIR2bits.TMR3IF = 0);
   823   0013C8  92A1               	bcf	161,1,c	;volatile
   824   0013CA                     
   825                           ;MCAL_Layer/Timer3/hal_timer3.c: 32:   TMR3_Interrupt_Hundeler = timer3->TMR3_Interrupt_
      +                          Hundeler;
   826   0013CA  C06E  FFD9         	movff	Timer3_Init@timer3,fsr2l
   827   0013CE  C06F  FFDA         	movff	Timer3_Init@timer3+1,fsr2h
   828   0013D2  CFDE F009          	movff	postinc2,_TMR3_Interrupt_Hundeler
   829   0013D6  CFDD F00A          	movff	postdec2,_TMR3_Interrupt_Hundeler+1
   830   0013DA                     
   831                           ;MCAL_Layer/Timer3/hal_timer3.c: 45:   (INTCONbits.GIE = 1);
   832   0013DA  8EF2               	bsf	242,7,c	;volatile
   833   0013DC                     
   834                           ;MCAL_Layer/Timer3/hal_timer3.c: 46:   (INTCONbits.PEIE = 0);
   835   0013DC  9CF2               	bcf	242,6,c	;volatile
   836   0013DE                     
   837                           ;MCAL_Layer/Timer3/hal_timer3.c: 49:   (T3CONbits.TMR3ON = 1);
   838   0013DE  80B1               	bsf	177,0,c	;volatile
   839   0013E0                     l1114:
   840   0013E0  0012               	return		;funcret
   841   0013E2                     __end_of_Timer3_Init:
   842                           	callstack 0
   843                           
   844 ;; *************** function _Timer3_Mode_Select *****************
   845 ;; Defined at:
   846 ;;		line 95 in file "MCAL_Layer/Timer3/hal_timer3.c"
   847 ;; Parameters:    Size  Location     Type
   848 ;;  timer3          2    3[COMRAM] PTR const struct .
   849 ;;		 -> counter3_object(7), timer3_timer_init@timer3_object(7), 
   850 ;; Auto vars:     Size  Location     Type
   851 ;;		None
   852 ;; Return value:  Size  Location     Type
   853 ;;                  1    wreg      void 
   854 ;; Registers used:
   855 ;;		wreg, fsr2l, fsr2h, status,2, status,0
   856 ;; Tracked objects:
   857 ;;		On entry : 0/0
   858 ;;		On exit  : 0/0
   859 ;;		Unchanged: 0/0
   860 ;; Data sizes:     COMRAM   BANK0   BANK1   BANK2   BANK3   BANK4   BANK5   BANK6   BANK7   BANK8   BANK9  BANK10  BANK1
      +1  BANK12  BANK13  BANK14  BANK15
   861 ;;      Params:         2       0       0       0       0       0       0       0       0       0       0       0       
      +0       0       0       0       0
   862 ;;      Locals:         0       0       0       0       0       0       0       0       0       0       0       0       
      +0       0       0       0       0
   863 ;;      Temps:          0       0       0       0       0       0       0       0       0       0       0       0       
      +0       0       0       0       0
   864 ;;      Totals:         2       0       0       0       0       0       0       0       0       0       0       0       
      +0       0       0       0       0
   865 ;;Total ram usage:        2 bytes
   866 ;; Hardware stack levels used: 1
   867 ;; Hardware stack levels required when called: 3
   868 ;; This function calls:
   869 ;;		Nothing
   870 ;; This function is called by:
   871 ;;		_Timer3_Init
   872 ;; This function uses a non-reentrant model
   873 ;;
   874                           
   875                           	psect	text4
   876   0013E2                     __ptext4:
   877                           	callstack 0
   878   0013E2                     _Timer3_Mode_Select:
   879                           	callstack 25
   880   0013E2                     
   881                           ;MCAL_Layer/Timer3/hal_timer3.c: 96:     if(timer3->timer3_mode == 0 ){
   882   0013E2  EE20 F003          	lfsr	2,3
   883   0013E6  506C               	movf	Timer3_Mode_Select@timer3^0,w,c
   884   0013E8  26D9               	addwf	fsr2l,f,c
   885   0013EA  506D               	movf	(Timer3_Mode_Select@timer3+1)^0,w,c
   886   0013EC  22DA               	addwfc	fsr2h,f,c
   887   0013EE  B0DF               	btfsc	indf2,0,c
   888   0013F0  EFFC  F009         	goto	u2351
   889   0013F4  EFFE  F009         	goto	u2350
   890   0013F8                     u2351:
   891   0013F8  EF01  F00A         	goto	l3733
   892   0013FC                     u2350:
   893   0013FC                     
   894                           ;MCAL_Layer/Timer3/hal_timer3.c: 97:     (T3CONbits.TMR3CS = 0);
   895   0013FC  92B1               	bcf	177,1,c	;volatile
   896                           
   897                           ;MCAL_Layer/Timer3/hal_timer3.c: 98:     }
   898   0013FE  EF2F  F00A         	goto	l1142
   899   001402                     l3733:
   900   001402  EE20 F003          	lfsr	2,3
   901   001406  506C               	movf	Timer3_Mode_Select@timer3^0,w,c
   902   001408  26D9               	addwf	fsr2l,f,c
   903   00140A  506D               	movf	(Timer3_Mode_Select@timer3+1)^0,w,c
   904   00140C  22DA               	addwfc	fsr2h,f,c
   905   00140E  A0DF               	btfss	indf2,0,c
   906   001410  EF0C  F00A         	goto	u2361
   907   001414  EF0E  F00A         	goto	u2360
   908   001418                     u2361:
   909   001418  EF2F  F00A         	goto	l1142
   910   00141C                     u2360:
   911   00141C                     
   912                           ;MCAL_Layer/Timer3/hal_timer3.c: 100:     (T3CONbits.TMR3CS = 1);
   913   00141C  82B1               	bsf	177,1,c	;volatile
   914   00141E                     
   915                           ;MCAL_Layer/Timer3/hal_timer3.c: 101:     if(timer3->timer3_counter_mode == 0){
   916   00141E  EE20 F003          	lfsr	2,3
   917   001422  506C               	movf	Timer3_Mode_Select@timer3^0,w,c
   918   001424  26D9               	addwf	fsr2l,f,c
   919   001426  506D               	movf	(Timer3_Mode_Select@timer3+1)^0,w,c
   920   001428  22DA               	addwfc	fsr2h,f,c
   921   00142A  B2DF               	btfsc	indf2,1,c
   922   00142C  EF1A  F00A         	goto	u2371
   923   001430  EF1C  F00A         	goto	u2370
   924   001434                     u2371:
   925   001434  EF1F  F00A         	goto	l3741
   926   001438                     u2370:
   927   001438                     
   928                           ;MCAL_Layer/Timer3/hal_timer3.c: 102:     (T3CONbits.T3SYNC = 0);
   929   001438  94B1               	bcf	177,2,c	;volatile
   930                           
   931                           ;MCAL_Layer/Timer3/hal_timer3.c: 103:     }
   932   00143A  EF2F  F00A         	goto	l1142
   933   00143E                     l3741:
   934   00143E  EE20 F003          	lfsr	2,3
   935   001442  506C               	movf	Timer3_Mode_Select@timer3^0,w,c
   936   001444  26D9               	addwf	fsr2l,f,c
   937   001446  506D               	movf	(Timer3_Mode_Select@timer3+1)^0,w,c
   938   001448  22DA               	addwfc	fsr2h,f,c
   939   00144A  A2DF               	btfss	indf2,1,c
   940   00144C  EF2A  F00A         	goto	u2381
   941   001450  EF2C  F00A         	goto	u2380
   942   001454                     u2381:
   943   001454  EF2F  F00A         	goto	l1141
   944   001458                     u2380:
   945   001458                     
   946                           ;MCAL_Layer/Timer3/hal_timer3.c: 105:     (T3CONbits.T3SYNC = 1);
   947   001458  84B1               	bsf	177,2,c	;volatile
   948                           
   949                           ;MCAL_Layer/Timer3/hal_timer3.c: 106:     }
   950   00145A  EF2F  F00A         	goto	l1142
   951   00145E                     l1141:
   952   00145E                     l1142:
   953   00145E  0012               	return		;funcret
   954   001460                     __end_of_Timer3_Mode_Select:
   955                           	callstack 0
   956                           
   957 ;; *************** function _Timer3_Read_Value *****************
   958 ;; Defined at:
   959 ;;		line 81 in file "MCAL_Layer/Timer3/hal_timer3.c"
   960 ;; Parameters:    Size  Location     Type
   961 ;;  timer3          2    3[COMRAM] PTR const struct .
   962 ;;		 -> counter3_object(7), 
   963 ;;  value           2    5[COMRAM] PTR unsigned short 
   964 ;;		 -> counter3_flag(2), 
   965 ;; Auto vars:     Size  Location     Type
   966 ;;  l_tmr3h         1   11[COMRAM] unsigned char 
   967 ;;  l_tmr3l         1   10[COMRAM] unsigned char 
   968 ;;  ret             1    9[COMRAM] unsigned char 
   969 ;; Return value:  Size  Location     Type
   970 ;;                  1    wreg      unsigned char 
   971 ;; Registers used:
   972 ;;		wreg, fsr2l, fsr2h, status,2, status,0
   973 ;; Tracked objects:
   974 ;;		On entry : 0/0
   975 ;;		On exit  : 0/0
   976 ;;		Unchanged: 0/0
   977 ;; Data sizes:     COMRAM   BANK0   BANK1   BANK2   BANK3   BANK4   BANK5   BANK6   BANK7   BANK8   BANK9  BANK10  BANK1
      +1  BANK12  BANK13  BANK14  BANK15
   978 ;;      Params:         4       0       0       0       0       0       0       0       0       0       0       0       
      +0       0       0       0       0
   979 ;;      Locals:         3       0       0       0       0       0       0       0       0       0       0       0       
      +0       0       0       0       0
   980 ;;      Temps:          2       0       0       0       0       0       0       0       0       0       0       0       
      +0       0       0       0       0
   981 ;;      Totals:         9       0       0       0       0       0       0       0       0       0       0       0       
      +0       0       0       0       0
   982 ;;Total ram usage:        9 bytes
   983 ;; Hardware stack levels used: 1
   984 ;; Hardware stack levels required when called: 3
   985 ;; This function calls:
   986 ;;		Nothing
   987 ;; This function is called by:
   988 ;;		_main
   989 ;; This function uses a non-reentrant model
   990 ;;
   991                           
   992                           	psect	text5
   993   001460                     __ptext5:
   994                           	callstack 0
   995   001460                     _Timer3_Read_Value:
   996                           	callstack 27
   997   001460                     
   998                           ;MCAL_Layer/Timer3/hal_timer3.c: 82: Std_ReturnType ret = (Std_ReturnType)0x01;
   999   001460  0E01               	movlw	1
  1000   001462  6E72               	movwf	Timer3_Read_Value@ret^0,c
  1001   001464  0E00               	movlw	0
  1002   001466  6E74               	movwf	Timer3_Read_Value@l_tmr3h^0,c
  1003   001468                     
  1004                           ;MCAL_Layer/Timer3/hal_timer3.c: 84: if((timer3 == ((void*)0)) || (value == ((void*)0)))
      +                          {
  1005   001468  506C               	movf	Timer3_Read_Value@timer3^0,w,c
  1006   00146A  106D               	iorwf	(Timer3_Read_Value@timer3+1)^0,w,c
  1007   00146C  B4D8               	btfsc	status,2,c
  1008   00146E  EF3B  F00A         	goto	u2591
  1009   001472  EF3D  F00A         	goto	u2590
  1010   001476                     u2591:
  1011   001476  EF46  F00A         	goto	l4005
  1012   00147A                     u2590:
  1013   00147A  506E               	movf	Timer3_Read_Value@value^0,w,c
  1014   00147C  106F               	iorwf	(Timer3_Read_Value@value+1)^0,w,c
  1015   00147E  A4D8               	btfss	status,2,c
  1016   001480  EF44  F00A         	goto	u2601
  1017   001484  EF46  F00A         	goto	u2600
  1018   001488                     u2601:
  1019   001488  EF4A  F00A         	goto	l1127
  1020   00148C                     u2600:
  1021   00148C                     l4005:
  1022                           
  1023                           ;MCAL_Layer/Timer3/hal_timer3.c: 85: ret = (Std_ReturnType)0x00;
  1024   00148C  0E00               	movlw	0
  1025   00148E  6E72               	movwf	Timer3_Read_Value@ret^0,c
  1026                           
  1027                           ;MCAL_Layer/Timer3/hal_timer3.c: 86: }
  1028   001490  EF60  F00A         	goto	l4009
  1029   001494                     l1127:
  1030                           
  1031                           ;MCAL_Layer/Timer3/hal_timer3.c: 88: l_tmr3l = TMR3L;
  1032   001494  CFB2 F073          	movff	4018,Timer3_Read_Value@l_tmr3l	;volatile
  1033                           
  1034                           ;MCAL_Layer/Timer3/hal_timer3.c: 89:  l_tmr3h = TMR3H;
  1035   001498  CFB3 F074          	movff	4019,Timer3_Read_Value@l_tmr3h	;volatile
  1036   00149C                     
  1037                           ;MCAL_Layer/Timer3/hal_timer3.c: 90:  *value = ((uint_16)(l_tmr3h << 8)+ l_tmr3l);
  1038   00149C  5073               	movf	Timer3_Read_Value@l_tmr3l^0,w,c
  1039   00149E  C074  F070         	movff	Timer3_Read_Value@l_tmr3h,??_Timer3_Read_Value
  1040   0014A2  6A71               	clrf	(??_Timer3_Read_Value+1)^0,c
  1041   0014A4  C070  F071         	movff	??_Timer3_Read_Value,??_Timer3_Read_Value+1
  1042   0014A8  6A70               	clrf	??_Timer3_Read_Value^0,c
  1043   0014AA  2670               	addwf	??_Timer3_Read_Value^0,f,c
  1044   0014AC  0E00               	movlw	0
  1045   0014AE  2271               	addwfc	(??_Timer3_Read_Value+1)^0,f,c
  1046   0014B0  C06E  FFD9         	movff	Timer3_Read_Value@value,fsr2l
  1047   0014B4  C06F  FFDA         	movff	Timer3_Read_Value@value+1,fsr2h
  1048   0014B8  C070  FFDE         	movff	??_Timer3_Read_Value,postinc2
  1049   0014BC  C071  FFDD         	movff	??_Timer3_Read_Value+1,postdec2
  1050   0014C0                     l4009:
  1051                           
  1052                           ;MCAL_Layer/Timer3/hal_timer3.c: 92: return ret;
  1053   0014C0  5072               	movf	Timer3_Read_Value@ret^0,w,c
  1054   0014C2  0012               	return		;funcret
  1055   0014C4                     __end_of_Timer3_Read_Value:
  1056                           	callstack 0
  1057                           
  1058 ;; *************** function _Interrupt_Manager *****************
  1059 ;; Defined at:
  1060 ;;		line 30 in file "MCAL_Layer/interrupt/mcal_interrupt_manager.c"
  1061 ;; Parameters:    Size  Location     Type
  1062 ;;		None
  1063 ;; Auto vars:     Size  Location     Type
  1064 ;;		None
  1065 ;; Return value:  Size  Location     Type
  1066 ;;                  1    wreg      void 
  1067 ;; Registers used:
  1068 ;;		wreg, status,2, status,0, pcl, pclath, pclatu, tosl, cstack
  1069 ;; Tracked objects:
  1070 ;;		On entry : 0/0
  1071 ;;		On exit  : 0/0
  1072 ;;		Unchanged: 0/0
  1073 ;; Data sizes:     COMRAM   BANK0   BANK1   BANK2   BANK3   BANK4   BANK5   BANK6   BANK7   BANK8   BANK9  BANK10  BANK1
      +1  BANK12  BANK13  BANK14  BANK15
  1074 ;;      Params:         0       0       0       0       0       0       0       0       0       0       0       0       
      +0       0       0       0       0
  1075 ;;      Locals:         0       0       0       0       0       0       0       0       0       0       0       0       
      +0       0       0       0       0
  1076 ;;      Temps:          2       0       0       0       0       0       0       0       0       0       0       0       
      +0       0       0       0       0
  1077 ;;      Totals:         2       0       0       0       0       0       0       0       0       0       0       0       
      +0       0       0       0       0
  1078 ;;Total ram usage:        2 bytes
  1079 ;; Hardware stack levels used: 1
  1080 ;; Hardware stack levels required when called: 2
  1081 ;; This function calls:
  1082 ;;		_ADC_ISR
  1083 ;;		_INT0_ISR
  1084 ;;		_INT1_ISR
  1085 ;;		_INT2_ISR
  1086 ;;		_RB4_ISR
  1087 ;;		_RB5_ISR
  1088 ;;		_RB6_ISR
  1089 ;;		_RB7_ISR
  1090 ;;		_TIMER0_ISR
  1091 ;;		_TIMER1_ISR
  1092 ;;		_TIMER2_ISR
  1093 ;;		_TIMER3_ISR
  1094 ;; This function is called by:
  1095 ;;		Interrupt level 2
  1096 ;; This function uses a non-reentrant model
  1097 ;;
  1098                           
  1099                           	psect	intcode
  1100   000008                     __pintcode:
  1101                           	callstack 0
  1102   000008                     _Interrupt_Manager:
  1103                           	callstack 25
  1104                           
  1105                           ;incstack = 0
  1106   000008  8279               	bsf	int$flags,1,c	;set compiler interrupt flag (level 2)
  1107   00000A  ED04  F008         	call	int_func,f	;refresh shadow registers
  1108                           
  1109                           	psect	intcode_body
  1110   001008                     __pintcode_body:
  1111                           	callstack 25
  1112   001008                     int_func:
  1113                           	callstack 25
  1114   001008  0006               	pop		; remove dummy address from shadow register refresh
  1115   00100A  CFFA F06A          	movff	pclath,??_Interrupt_Manager
  1116   00100E  CFFB F06B          	movff	pclatu,??_Interrupt_Manager+1
  1117   001012                     
  1118                           ;MCAL_Layer/interrupt/mcal_interrupt_manager.c: 31:     if((INTCONbits.INT0IE ==1) && (I
      +                          NTCONbits.INT0IF==1)){
  1119   001012  A8F2               	btfss	242,4,c	;volatile
  1120   001014  EF0E  F008         	goto	i2u159_41
  1121   001018  EF10  F008         	goto	i2u159_40
  1122   00101C                     i2u159_41:
  1123   00101C  EF19  F008         	goto	i2l863
  1124   001020                     i2u159_40:
  1125   001020  A2F2               	btfss	242,1,c	;volatile
  1126   001022  EF15  F008         	goto	i2u160_41
  1127   001026  EF17  F008         	goto	i2u160_40
  1128   00102A                     i2u160_41:
  1129   00102A  EF19  F008         	goto	i2l863
  1130   00102E                     i2u160_40:
  1131   00102E                     
  1132                           ;MCAL_Layer/interrupt/mcal_interrupt_manager.c: 32:     INT0_ISR();
  1133   00102E  EC5D  F00B         	call	_INT0_ISR	;wreg free
  1134   001032                     i2l863:
  1135                           
  1136                           ;MCAL_Layer/interrupt/mcal_interrupt_manager.c: 35:     if((INTCON3bits.INT1E ==1) && (I
      +                          NTCON3bits.INT1F ==1)){
  1137   001032  A6F0               	btfss	240,3,c	;volatile
  1138   001034  EF1E  F008         	goto	i2u161_41
  1139   001038  EF20  F008         	goto	i2u161_40
  1140   00103C                     i2u161_41:
  1141   00103C  EF29  F008         	goto	i2l865
  1142   001040                     i2u161_40:
  1143   001040  A0F0               	btfss	240,0,c	;volatile
  1144   001042  EF25  F008         	goto	i2u162_41
  1145   001046  EF27  F008         	goto	i2u162_40
  1146   00104A                     i2u162_41:
  1147   00104A  EF29  F008         	goto	i2l865
  1148   00104E                     i2u162_40:
  1149   00104E                     
  1150                           ;MCAL_Layer/interrupt/mcal_interrupt_manager.c: 36:     INT1_ISR();
  1151   00104E  EC5B  F00B         	call	_INT1_ISR	;wreg free
  1152   001052                     i2l865:
  1153                           
  1154                           ;MCAL_Layer/interrupt/mcal_interrupt_manager.c: 39:     if((INTCON3bits.INT2E ==1) && (I
      +                          NTCON3bits.INT2F ==1)){
  1155   001052  A8F0               	btfss	240,4,c	;volatile
  1156   001054  EF2E  F008         	goto	i2u163_41
  1157   001058  EF30  F008         	goto	i2u163_40
  1158   00105C                     i2u163_41:
  1159   00105C  EF39  F008         	goto	i2l867
  1160   001060                     i2u163_40:
  1161   001060  A2F0               	btfss	240,1,c	;volatile
  1162   001062  EF35  F008         	goto	i2u164_41
  1163   001066  EF37  F008         	goto	i2u164_40
  1164   00106A                     i2u164_41:
  1165   00106A  EF39  F008         	goto	i2l867
  1166   00106E                     i2u164_40:
  1167   00106E                     
  1168                           ;MCAL_Layer/interrupt/mcal_interrupt_manager.c: 40:     INT2_ISR();
  1169   00106E  EC59  F00B         	call	_INT2_ISR	;wreg free
  1170   001072                     i2l867:
  1171                           
  1172                           ;MCAL_Layer/interrupt/mcal_interrupt_manager.c: 43:     if((INTCONbits.RBIE ==1) && (INT
      +                          CONbits.RBIF ==1) &&
  1173   001072  A6F2               	btfss	242,3,c	;volatile
  1174   001074  EF3E  F008         	goto	i2u165_41
  1175   001078  EF40  F008         	goto	i2u165_40
  1176   00107C                     i2u165_41:
  1177   00107C  EF5B  F008         	goto	i2l869
  1178   001080                     i2u165_40:
  1179   001080  A0F2               	btfss	242,0,c	;volatile
  1180   001082  EF45  F008         	goto	i2u166_41
  1181   001086  EF47  F008         	goto	i2u166_40
  1182   00108A                     i2u166_41:
  1183   00108A  EF5B  F008         	goto	i2l869
  1184   00108E                     i2u166_40:
  1185   00108E  A881               	btfss	129,4,c	;volatile
  1186   001090  EF4C  F008         	goto	i2u167_41
  1187   001094  EF4E  F008         	goto	i2u167_40
  1188   001098                     i2u167_41:
  1189   001098  EF5B  F008         	goto	i2l869
  1190   00109C                     i2u167_40:
  1191   00109C  0462               	decf	_RB4_Flag^0,w,c	;volatile
  1192   00109E  A4D8               	btfss	status,2,c
  1193   0010A0  EF54  F008         	goto	i2u168_41
  1194   0010A4  EF56  F008         	goto	i2u168_40
  1195   0010A8                     i2u168_41:
  1196   0010A8  EF5B  F008         	goto	i2l869
  1197   0010AC                     i2u168_40:
  1198   0010AC                     
  1199                           ;MCAL_Layer/interrupt/mcal_interrupt_manager.c: 44:         (PORTBbits.RB4 == HIGH)&& (R
      +                          B4_Flag== 1)){;MCAL_Layer/interrupt/mcal_interrupt_manager.c: 45:         RB4_Flag = 0;
  1200   0010AC  0E00               	movlw	0
  1201   0010AE  6E62               	movwf	_RB4_Flag^0,c	;volatile
  1202   0010B0                     
  1203                           ;MCAL_Layer/interrupt/mcal_interrupt_manager.c: 46:         RB4_ISR(1);
  1204   0010B0  0E01               	movlw	1
  1205   0010B2  EC39  F00B         	call	_RB4_ISR
  1206   0010B6                     i2l869:
  1207                           
  1208                           ;MCAL_Layer/interrupt/mcal_interrupt_manager.c: 49:     if((INTCONbits.RBIE ==1) && (INT
      +                          CONbits.RBIF ==1)&&
  1209   0010B6  A6F2               	btfss	242,3,c	;volatile
  1210   0010B8  EF60  F008         	goto	i2u169_41
  1211   0010BC  EF62  F008         	goto	i2u169_40
  1212   0010C0                     i2u169_41:
  1213   0010C0  EF7D  F008         	goto	i2l871
  1214   0010C4                     i2u169_40:
  1215   0010C4  A0F2               	btfss	242,0,c	;volatile
  1216   0010C6  EF67  F008         	goto	i2u170_41
  1217   0010CA  EF69  F008         	goto	i2u170_40
  1218   0010CE                     i2u170_41:
  1219   0010CE  EF7D  F008         	goto	i2l871
  1220   0010D2                     i2u170_40:
  1221   0010D2  B881               	btfsc	129,4,c	;volatile
  1222   0010D4  EF6E  F008         	goto	i2u171_41
  1223   0010D8  EF70  F008         	goto	i2u171_40
  1224   0010DC                     i2u171_41:
  1225   0010DC  EF7D  F008         	goto	i2l871
  1226   0010E0                     i2u171_40:
  1227   0010E0  5062               	movf	_RB4_Flag^0,w,c	;volatile
  1228   0010E2  A4D8               	btfss	status,2,c
  1229   0010E4  EF76  F008         	goto	i2u172_41
  1230   0010E8  EF78  F008         	goto	i2u172_40
  1231   0010EC                     i2u172_41:
  1232   0010EC  EF7D  F008         	goto	i2l871
  1233   0010F0                     i2u172_40:
  1234   0010F0                     
  1235                           ;MCAL_Layer/interrupt/mcal_interrupt_manager.c: 50:        (PORTBbits.RB4 == LOW)&& (RB4
      +                          _Flag== 0)){;MCAL_Layer/interrupt/mcal_interrupt_manager.c: 51:         RB4_Flag = 1;
  1236   0010F0  0E01               	movlw	1
  1237   0010F2  6E62               	movwf	_RB4_Flag^0,c	;volatile
  1238   0010F4                     
  1239                           ;MCAL_Layer/interrupt/mcal_interrupt_manager.c: 52:         RB4_ISR(0);
  1240   0010F4  0E00               	movlw	0
  1241   0010F6  EC39  F00B         	call	_RB4_ISR
  1242   0010FA                     i2l871:
  1243                           
  1244                           ;MCAL_Layer/interrupt/mcal_interrupt_manager.c: 55:     if((INTCONbits.RBIE ==1) && (INT
      +                          CONbits.RBIF ==1) &&
  1245   0010FA  A6F2               	btfss	242,3,c	;volatile
  1246   0010FC  EF82  F008         	goto	i2u173_41
  1247   001100  EF84  F008         	goto	i2u173_40
  1248   001104                     i2u173_41:
  1249   001104  EF9F  F008         	goto	i2l873
  1250   001108                     i2u173_40:
  1251   001108  A0F2               	btfss	242,0,c	;volatile
  1252   00110A  EF89  F008         	goto	i2u174_41
  1253   00110E  EF8B  F008         	goto	i2u174_40
  1254   001112                     i2u174_41:
  1255   001112  EF9F  F008         	goto	i2l873
  1256   001116                     i2u174_40:
  1257   001116  AA81               	btfss	129,5,c	;volatile
  1258   001118  EF90  F008         	goto	i2u175_41
  1259   00111C  EF92  F008         	goto	i2u175_40
  1260   001120                     i2u175_41:
  1261   001120  EF9F  F008         	goto	i2l873
  1262   001124                     i2u175_40:
  1263   001124  0461               	decf	_RB5_Flag^0,w,c	;volatile
  1264   001126  A4D8               	btfss	status,2,c
  1265   001128  EF98  F008         	goto	i2u176_41
  1266   00112C  EF9A  F008         	goto	i2u176_40
  1267   001130                     i2u176_41:
  1268   001130  EF9F  F008         	goto	i2l873
  1269   001134                     i2u176_40:
  1270   001134                     
  1271                           ;MCAL_Layer/interrupt/mcal_interrupt_manager.c: 56:         (PORTBbits.RB5 == HIGH)&& (R
      +                          B5_Flag== 1)){;MCAL_Layer/interrupt/mcal_interrupt_manager.c: 57:           RB5_Flag = 0
      +                          ;
  1272   001134  0E00               	movlw	0
  1273   001136  6E61               	movwf	_RB5_Flag^0,c	;volatile
  1274   001138                     
  1275                           ;MCAL_Layer/interrupt/mcal_interrupt_manager.c: 58:           RB5_ISR(1);
  1276   001138  0E01               	movlw	1
  1277   00113A  EC2C  F00B         	call	_RB5_ISR
  1278   00113E                     i2l873:
  1279                           
  1280                           ;MCAL_Layer/interrupt/mcal_interrupt_manager.c: 61:     if((INTCONbits.RBIE ==1) && (INT
      +                          CONbits.RBIF ==1)&&
  1281   00113E  A6F2               	btfss	242,3,c	;volatile
  1282   001140  EFA4  F008         	goto	i2u177_41
  1283   001144  EFA6  F008         	goto	i2u177_40
  1284   001148                     i2u177_41:
  1285   001148  EFC1  F008         	goto	i2l875
  1286   00114C                     i2u177_40:
  1287   00114C  A0F2               	btfss	242,0,c	;volatile
  1288   00114E  EFAB  F008         	goto	i2u178_41
  1289   001152  EFAD  F008         	goto	i2u178_40
  1290   001156                     i2u178_41:
  1291   001156  EFC1  F008         	goto	i2l875
  1292   00115A                     i2u178_40:
  1293   00115A  BA81               	btfsc	129,5,c	;volatile
  1294   00115C  EFB2  F008         	goto	i2u179_41
  1295   001160  EFB4  F008         	goto	i2u179_40
  1296   001164                     i2u179_41:
  1297   001164  EFC1  F008         	goto	i2l875
  1298   001168                     i2u179_40:
  1299   001168  5061               	movf	_RB5_Flag^0,w,c	;volatile
  1300   00116A  A4D8               	btfss	status,2,c
  1301   00116C  EFBA  F008         	goto	i2u180_41
  1302   001170  EFBC  F008         	goto	i2u180_40
  1303   001174                     i2u180_41:
  1304   001174  EFC1  F008         	goto	i2l875
  1305   001178                     i2u180_40:
  1306   001178                     
  1307                           ;MCAL_Layer/interrupt/mcal_interrupt_manager.c: 62:         (PORTBbits.RB5 == LOW)&& (RB
      +                          5_Flag== 0)){;MCAL_Layer/interrupt/mcal_interrupt_manager.c: 63:           RB5_Flag = 1;
  1308   001178  0E01               	movlw	1
  1309   00117A  6E61               	movwf	_RB5_Flag^0,c	;volatile
  1310   00117C                     
  1311                           ;MCAL_Layer/interrupt/mcal_interrupt_manager.c: 64:           RB5_ISR(0);
  1312   00117C  0E00               	movlw	0
  1313   00117E  EC2C  F00B         	call	_RB5_ISR
  1314   001182                     i2l875:
  1315                           
  1316                           ;MCAL_Layer/interrupt/mcal_interrupt_manager.c: 67:     if((INTCONbits.RBIE ==1) && (INT
      +                          CONbits.RBIF ==1) &&
  1317   001182  A6F2               	btfss	242,3,c	;volatile
  1318   001184  EFC6  F008         	goto	i2u181_41
  1319   001188  EFC8  F008         	goto	i2u181_40
  1320   00118C                     i2u181_41:
  1321   00118C  EFE3  F008         	goto	i2l877
  1322   001190                     i2u181_40:
  1323   001190  A0F2               	btfss	242,0,c	;volatile
  1324   001192  EFCD  F008         	goto	i2u182_41
  1325   001196  EFCF  F008         	goto	i2u182_40
  1326   00119A                     i2u182_41:
  1327   00119A  EFE3  F008         	goto	i2l877
  1328   00119E                     i2u182_40:
  1329   00119E  AC81               	btfss	129,6,c	;volatile
  1330   0011A0  EFD4  F008         	goto	i2u183_41
  1331   0011A4  EFD6  F008         	goto	i2u183_40
  1332   0011A8                     i2u183_41:
  1333   0011A8  EFE3  F008         	goto	i2l877
  1334   0011AC                     i2u183_40:
  1335   0011AC  0460               	decf	_RB6_Flag^0,w,c	;volatile
  1336   0011AE  A4D8               	btfss	status,2,c
  1337   0011B0  EFDC  F008         	goto	i2u184_41
  1338   0011B4  EFDE  F008         	goto	i2u184_40
  1339   0011B8                     i2u184_41:
  1340   0011B8  EFE3  F008         	goto	i2l877
  1341   0011BC                     i2u184_40:
  1342   0011BC                     
  1343                           ;MCAL_Layer/interrupt/mcal_interrupt_manager.c: 68:        (PORTBbits.RB6 == HIGH)&& (RB
      +                          6_Flag== 1)){;MCAL_Layer/interrupt/mcal_interrupt_manager.c: 69:           RB6_Flag = 0;
  1344   0011BC  0E00               	movlw	0
  1345   0011BE  6E60               	movwf	_RB6_Flag^0,c	;volatile
  1346   0011C0                     
  1347                           ;MCAL_Layer/interrupt/mcal_interrupt_manager.c: 70:           RB6_ISR(1);
  1348   0011C0  0E01               	movlw	1
  1349   0011C2  EC1F  F00B         	call	_RB6_ISR
  1350   0011C6                     i2l877:
  1351                           
  1352                           ;MCAL_Layer/interrupt/mcal_interrupt_manager.c: 73:     if((INTCONbits.RBIE ==1) && (INT
      +                          CONbits.RBIF ==1)&&
  1353   0011C6  A6F2               	btfss	242,3,c	;volatile
  1354   0011C8  EFE8  F008         	goto	i2u185_41
  1355   0011CC  EFEA  F008         	goto	i2u185_40
  1356   0011D0                     i2u185_41:
  1357   0011D0  EF05  F009         	goto	i2l879
  1358   0011D4                     i2u185_40:
  1359   0011D4  A0F2               	btfss	242,0,c	;volatile
  1360   0011D6  EFEF  F008         	goto	i2u186_41
  1361   0011DA  EFF1  F008         	goto	i2u186_40
  1362   0011DE                     i2u186_41:
  1363   0011DE  EF05  F009         	goto	i2l879
  1364   0011E2                     i2u186_40:
  1365   0011E2  BC81               	btfsc	129,6,c	;volatile
  1366   0011E4  EFF6  F008         	goto	i2u187_41
  1367   0011E8  EFF8  F008         	goto	i2u187_40
  1368   0011EC                     i2u187_41:
  1369   0011EC  EF05  F009         	goto	i2l879
  1370   0011F0                     i2u187_40:
  1371   0011F0  5060               	movf	_RB6_Flag^0,w,c	;volatile
  1372   0011F2  A4D8               	btfss	status,2,c
  1373   0011F4  EFFE  F008         	goto	i2u188_41
  1374   0011F8  EF00  F009         	goto	i2u188_40
  1375   0011FC                     i2u188_41:
  1376   0011FC  EF05  F009         	goto	i2l879
  1377   001200                     i2u188_40:
  1378   001200                     
  1379                           ;MCAL_Layer/interrupt/mcal_interrupt_manager.c: 74:         (PORTBbits.RB6 == LOW)&& (RB
      +                          6_Flag== 0)){;MCAL_Layer/interrupt/mcal_interrupt_manager.c: 75:           RB6_Flag = 1;
  1380   001200  0E01               	movlw	1
  1381   001202  6E60               	movwf	_RB6_Flag^0,c	;volatile
  1382   001204                     
  1383                           ;MCAL_Layer/interrupt/mcal_interrupt_manager.c: 76:           RB6_ISR(0);
  1384   001204  0E00               	movlw	0
  1385   001206  EC1F  F00B         	call	_RB6_ISR
  1386   00120A                     i2l879:
  1387                           
  1388                           ;MCAL_Layer/interrupt/mcal_interrupt_manager.c: 79:     if((INTCONbits.RBIE ==1) && (INT
      +                          CONbits.RBIF ==1) &&
  1389   00120A  A6F2               	btfss	242,3,c	;volatile
  1390   00120C  EF0A  F009         	goto	i2u189_41
  1391   001210  EF0C  F009         	goto	i2u189_40
  1392   001214                     i2u189_41:
  1393   001214  EF27  F009         	goto	i2l881
  1394   001218                     i2u189_40:
  1395   001218  A0F2               	btfss	242,0,c	;volatile
  1396   00121A  EF11  F009         	goto	i2u190_41
  1397   00121E  EF13  F009         	goto	i2u190_40
  1398   001222                     i2u190_41:
  1399   001222  EF27  F009         	goto	i2l881
  1400   001226                     i2u190_40:
  1401   001226  AE81               	btfss	129,7,c	;volatile
  1402   001228  EF18  F009         	goto	i2u191_41
  1403   00122C  EF1A  F009         	goto	i2u191_40
  1404   001230                     i2u191_41:
  1405   001230  EF27  F009         	goto	i2l881
  1406   001234                     i2u191_40:
  1407   001234  045F               	decf	_RB7_Flag^0,w,c	;volatile
  1408   001236  A4D8               	btfss	status,2,c
  1409   001238  EF20  F009         	goto	i2u192_41
  1410   00123C  EF22  F009         	goto	i2u192_40
  1411   001240                     i2u192_41:
  1412   001240  EF27  F009         	goto	i2l881
  1413   001244                     i2u192_40:
  1414   001244                     
  1415                           ;MCAL_Layer/interrupt/mcal_interrupt_manager.c: 80:         (PORTBbits.RB7 == HIGH)&& (R
      +                          B7_Flag== 1)){;MCAL_Layer/interrupt/mcal_interrupt_manager.c: 81:           RB7_Flag = 0
      +                          ;
  1416   001244  0E00               	movlw	0
  1417   001246  6E5F               	movwf	_RB7_Flag^0,c	;volatile
  1418   001248                     
  1419                           ;MCAL_Layer/interrupt/mcal_interrupt_manager.c: 82:           RB7_ISR(1);
  1420   001248  0E01               	movlw	1
  1421   00124A  EC12  F00B         	call	_RB7_ISR
  1422   00124E                     i2l881:
  1423                           
  1424                           ;MCAL_Layer/interrupt/mcal_interrupt_manager.c: 85:     if((INTCONbits.RBIE ==1) && (INT
      +                          CONbits.RBIF ==1)&&
  1425   00124E  A6F2               	btfss	242,3,c	;volatile
  1426   001250  EF2C  F009         	goto	i2u193_41
  1427   001254  EF2E  F009         	goto	i2u193_40
  1428   001258                     i2u193_41:
  1429   001258  EF49  F009         	goto	i2l883
  1430   00125C                     i2u193_40:
  1431   00125C  A0F2               	btfss	242,0,c	;volatile
  1432   00125E  EF33  F009         	goto	i2u194_41
  1433   001262  EF35  F009         	goto	i2u194_40
  1434   001266                     i2u194_41:
  1435   001266  EF49  F009         	goto	i2l883
  1436   00126A                     i2u194_40:
  1437   00126A  BE81               	btfsc	129,7,c	;volatile
  1438   00126C  EF3A  F009         	goto	i2u195_41
  1439   001270  EF3C  F009         	goto	i2u195_40
  1440   001274                     i2u195_41:
  1441   001274  EF49  F009         	goto	i2l883
  1442   001278                     i2u195_40:
  1443   001278  505F               	movf	_RB7_Flag^0,w,c	;volatile
  1444   00127A  A4D8               	btfss	status,2,c
  1445   00127C  EF42  F009         	goto	i2u196_41
  1446   001280  EF44  F009         	goto	i2u196_40
  1447   001284                     i2u196_41:
  1448   001284  EF49  F009         	goto	i2l883
  1449   001288                     i2u196_40:
  1450   001288                     
  1451                           ;MCAL_Layer/interrupt/mcal_interrupt_manager.c: 86:        (PORTBbits.RB7 == LOW)&& (RB7
      +                          _Flag== 0)){;MCAL_Layer/interrupt/mcal_interrupt_manager.c: 87:           RB7_Flag = 1;
  1452   001288  0E01               	movlw	1
  1453   00128A  6E5F               	movwf	_RB7_Flag^0,c	;volatile
  1454   00128C                     
  1455                           ;MCAL_Layer/interrupt/mcal_interrupt_manager.c: 88:           RB7_ISR(0);
  1456   00128C  0E00               	movlw	0
  1457   00128E  EC12  F00B         	call	_RB7_ISR
  1458   001292                     i2l883:
  1459                           
  1460                           ;MCAL_Layer/interrupt/mcal_interrupt_manager.c: 91:     if((PIE1bits.ADIE ==1) && (PIR1b
      +                          its.ADIF==1)){
  1461   001292  AC9D               	btfss	157,6,c	;volatile
  1462   001294  EF4E  F009         	goto	i2u197_41
  1463   001298  EF50  F009         	goto	i2u197_40
  1464   00129C                     i2u197_41:
  1465   00129C  EF59  F009         	goto	i2l885
  1466   0012A0                     i2u197_40:
  1467   0012A0  AC9E               	btfss	158,6,c	;volatile
  1468   0012A2  EF55  F009         	goto	i2u198_41
  1469   0012A6  EF57  F009         	goto	i2u198_40
  1470   0012AA                     i2u198_41:
  1471   0012AA  EF59  F009         	goto	i2l885
  1472   0012AE                     i2u198_40:
  1473   0012AE                     
  1474                           ;MCAL_Layer/interrupt/mcal_interrupt_manager.c: 92:     ADC_ISR();
  1475   0012AE  EC5F  F00B         	call	_ADC_ISR	;wreg free
  1476   0012B2                     i2l885:
  1477                           
  1478                           ;MCAL_Layer/interrupt/mcal_interrupt_manager.c: 95: if((INTCONbits.TMR0IE ==1) && (INTCO
      +                          Nbits.TMR0IF ==1)){
  1479   0012B2  AAF2               	btfss	242,5,c	;volatile
  1480   0012B4  EF5E  F009         	goto	i2u199_41
  1481   0012B8  EF60  F009         	goto	i2u199_40
  1482   0012BC                     i2u199_41:
  1483   0012BC  EF69  F009         	goto	i2l887
  1484   0012C0                     i2u199_40:
  1485   0012C0  A4F2               	btfss	242,2,c	;volatile
  1486   0012C2  EF65  F009         	goto	i2u200_41
  1487   0012C6  EF67  F009         	goto	i2u200_40
  1488   0012CA                     i2u200_41:
  1489   0012CA  EF69  F009         	goto	i2l887
  1490   0012CE                     i2u200_40:
  1491   0012CE                     
  1492                           ;MCAL_Layer/interrupt/mcal_interrupt_manager.c: 96:     TIMER0_ISR();
  1493   0012CE  EC4C  F00B         	call	_TIMER0_ISR	;wreg free
  1494   0012D2                     i2l887:
  1495                           
  1496                           ;MCAL_Layer/interrupt/mcal_interrupt_manager.c: 99: if((PIE1bits.TMR1IE ==1) && (PIR1bit
      +                          s.TMR1IF ==1)){
  1497   0012D2  A09D               	btfss	157,0,c	;volatile
  1498   0012D4  EF6E  F009         	goto	i2u201_41
  1499   0012D8  EF70  F009         	goto	i2u201_40
  1500   0012DC                     i2u201_41:
  1501   0012DC  EF79  F009         	goto	i2l889
  1502   0012E0                     i2u201_40:
  1503   0012E0  A09E               	btfss	158,0,c	;volatile
  1504   0012E2  EF75  F009         	goto	i2u202_41
  1505   0012E6  EF77  F009         	goto	i2u202_40
  1506   0012EA                     i2u202_41:
  1507   0012EA  EF79  F009         	goto	i2l889
  1508   0012EE                     i2u202_40:
  1509   0012EE                     
  1510                           ;MCAL_Layer/interrupt/mcal_interrupt_manager.c: 100:     TIMER1_ISR();
  1511   0012EE  EC46  F00B         	call	_TIMER1_ISR	;wreg free
  1512   0012F2                     i2l889:
  1513                           
  1514                           ;MCAL_Layer/interrupt/mcal_interrupt_manager.c: 103: if((PIE1bits.TMR2IE ==1) && (PIR1bi
      +                          ts.TMR2IF ==1)){
  1515   0012F2  A29D               	btfss	157,1,c	;volatile
  1516   0012F4  EF7E  F009         	goto	i2u203_41
  1517   0012F8  EF80  F009         	goto	i2u203_40
  1518   0012FC                     i2u203_41:
  1519   0012FC  EF89  F009         	goto	i2l891
  1520   001300                     i2u203_40:
  1521   001300  A29E               	btfss	158,1,c	;volatile
  1522   001302  EF85  F009         	goto	i2u204_41
  1523   001306  EF87  F009         	goto	i2u204_40
  1524   00130A                     i2u204_41:
  1525   00130A  EF89  F009         	goto	i2l891
  1526   00130E                     i2u204_40:
  1527   00130E                     
  1528                           ;MCAL_Layer/interrupt/mcal_interrupt_manager.c: 104:     TIMER2_ISR();
  1529   00130E  EC52  F00B         	call	_TIMER2_ISR	;wreg free
  1530   001312                     i2l891:
  1531                           
  1532                           ;MCAL_Layer/interrupt/mcal_interrupt_manager.c: 107: if((PIE2bits.TMR3IE ==1) && (PIR2bi
      +                          ts.TMR3IF ==1)){
  1533   001312  A2A0               	btfss	160,1,c	;volatile
  1534   001314  EF8E  F009         	goto	i2u205_41
  1535   001318  EF90  F009         	goto	i2u205_40
  1536   00131C                     i2u205_41:
  1537   00131C  EF99  F009         	goto	i2l894
  1538   001320                     i2u205_40:
  1539   001320  A2A1               	btfss	161,1,c	;volatile
  1540   001322  EF95  F009         	goto	i2u206_41
  1541   001326  EF97  F009         	goto	i2u206_40
  1542   00132A                     i2u206_41:
  1543   00132A  EF99  F009         	goto	i2l894
  1544   00132E                     i2u206_40:
  1545   00132E                     
  1546                           ;MCAL_Layer/interrupt/mcal_interrupt_manager.c: 108:     TIMER3_ISR();
  1547   00132E  ECAA  F00A         	call	_TIMER3_ISR	;wreg free
  1548   001332                     i2l894:
  1549   001332  C06B  FFFB         	movff	??_Interrupt_Manager+1,pclatu
  1550   001336  C06A  FFFA         	movff	??_Interrupt_Manager,pclath
  1551   00133A  9279               	bcf	int$flags,1,c	;clear compiler interrupt flag (level 2)
  1552   00133C  0011               	retfie		f
  1553   00133E                     __end_of_Interrupt_Manager:
  1554                           	callstack 0
  1555                           
  1556 ;; *************** function _TIMER3_ISR *****************
  1557 ;; Defined at:
  1558 ;;		line 112 in file "MCAL_Layer/Timer3/hal_timer3.c"
  1559 ;; Parameters:    Size  Location     Type
  1560 ;;		None
  1561 ;; Auto vars:     Size  Location     Type
  1562 ;;		None
  1563 ;; Return value:  Size  Location     Type
  1564 ;;                  1    wreg      void 
  1565 ;; Registers used:
  1566 ;;		wreg, status,2, status,0, pcl, pclath, pclatu, tosl, cstack
  1567 ;; Tracked objects:
  1568 ;;		On entry : 0/0
  1569 ;;		On exit  : 0/0
  1570 ;;		Unchanged: 0/0
  1571 ;; Data sizes:     COMRAM   BANK0   BANK1   BANK2   BANK3   BANK4   BANK5   BANK6   BANK7   BANK8   BANK9  BANK10  BANK1
      +1  BANK12  BANK13  BANK14  BANK15
  1572 ;;      Params:         0       0       0       0       0       0       0       0       0       0       0       0       
      +0       0       0       0       0
  1573 ;;      Locals:         0       0       0       0       0       0       0       0       0       0       0       0       
      +0       0       0       0       0
  1574 ;;      Temps:          0       0       0       0       0       0       0       0       0       0       0       0       
      +0       0       0       0       0
  1575 ;;      Totals:         0       0       0       0       0       0       0       0       0       0       0       0       
      +0       0       0       0       0
  1576 ;;Total ram usage:        0 bytes
  1577 ;; Hardware stack levels used: 1
  1578 ;; Hardware stack levels required when called: 1
  1579 ;; This function calls:
  1580 ;;		NULL
  1581 ;;		_Timer3_Defualt_Interrupt_Hundeller
  1582 ;; This function is called by:
  1583 ;;		_Interrupt_Manager
  1584 ;; This function uses a non-reentrant model
  1585 ;;
  1586                           
  1587                           	psect	text7
  1588   001554                     __ptext7:
  1589                           	callstack 0
  1590   001554                     _TIMER3_ISR:
  1591                           	callstack 25
  1592   001554                     
  1593                           ;MCAL_Layer/Timer3/hal_timer3.c: 113: (PIR2bits.TMR3IF = 0);
  1594   001554  92A1               	bcf	161,1,c	;volatile
  1595   001556                     
  1596                           ;MCAL_Layer/Timer3/hal_timer3.c: 114: TMR3H = (timer3_preload)>>8;
  1597   001556  5008               	movf	(_timer3_preload+1)^0,w,c
  1598   001558  6EB3               	movwf	179,c	;volatile
  1599   00155A                     
  1600                           ;MCAL_Layer/Timer3/hal_timer3.c: 115: TMR3L = (uint_8)(timer3_preload);
  1601   00155A  C007  FFB2         	movff	_timer3_preload,4018	;volatile
  1602   00155E                     
  1603                           ;MCAL_Layer/Timer3/hal_timer3.c: 116: if(TMR3_Interrupt_Hundeler){
  1604   00155E  5009               	movf	_TMR3_Interrupt_Hundeler^0,w,c
  1605   001560  100A               	iorwf	(_TMR3_Interrupt_Hundeler+1)^0,w,c
  1606   001562  B4D8               	btfsc	status,2,c
  1607   001564  EFB6  F00A         	goto	i2u49_41
  1608   001568  EFB8  F00A         	goto	i2u49_40
  1609   00156C                     i2u49_41:
  1610   00156C  EFC4  F00A         	goto	i2l1146
  1611   001570                     i2u49_40:
  1612   001570                     
  1613                           ;MCAL_Layer/Timer3/hal_timer3.c: 117:  TMR3_Interrupt_Hundeler();
  1614   001570  D802               	call	i2u50_48
  1615   001572  EFC4  F00A         	goto	i2u50_49
  1616   001576                     i2u50_48:
  1617   001576  0005               	push	
  1618   001578  6EFA               	movwf	pclath,c
  1619   00157A  5009               	movf	_TMR3_Interrupt_Hundeler^0,w,c
  1620   00157C  6EFD               	movwf	tosl,c
  1621   00157E  500A               	movf	(_TMR3_Interrupt_Hundeler+1)^0,w,c
  1622   001580  6EFE               	movwf	tosh,c
  1623   001582  6AFF               	clrf	tosu,c
  1624   001584  50FA               	movf	pclath,w,c
  1625   001586  0012               	return		;indir
  1626   001588                     i2u50_49:
  1627   001588                     i2l1146:
  1628   001588  0012               	return		;funcret
  1629   00158A                     __end_of_TIMER3_ISR:
  1630                           	callstack 0
  1631                           
  1632 ;; *************** function _Timer3_Defualt_Interrupt_Hundeller *****************
  1633 ;; Defined at:
  1634 ;;		line 59 in file "application.c"
  1635 ;; Parameters:    Size  Location     Type
  1636 ;;		None
  1637 ;; Auto vars:     Size  Location     Type
  1638 ;;		None
  1639 ;; Return value:  Size  Location     Type
  1640 ;;                  1    wreg      void 
  1641 ;; Registers used:
  1642 ;;		status,2, status,0
  1643 ;; Tracked objects:
  1644 ;;		On entry : 0/0
  1645 ;;		On exit  : 0/0
  1646 ;;		Unchanged: 0/0
  1647 ;; Data sizes:     COMRAM   BANK0   BANK1   BANK2   BANK3   BANK4   BANK5   BANK6   BANK7   BANK8   BANK9  BANK10  BANK1
      +1  BANK12  BANK13  BANK14  BANK15
  1648 ;;      Params:         0       0       0       0       0       0       0       0       0       0       0       0       
      +0       0       0       0       0
  1649 ;;      Locals:         0       0       0       0       0       0       0       0       0       0       0       0       
      +0       0       0       0       0
  1650 ;;      Temps:          0       0       0       0       0       0       0       0       0       0       0       0       
      +0       0       0       0       0
  1651 ;;      Totals:         0       0       0       0       0       0       0       0       0       0       0       0       
      +0       0       0       0       0
  1652 ;;Total ram usage:        0 bytes
  1653 ;; Hardware stack levels used: 1
  1654 ;; This function calls:
  1655 ;;		Nothing
  1656 ;; This function is called by:
  1657 ;;		_timer3_timer_init
  1658 ;;		_TIMER3_ISR
  1659 ;; This function uses a non-reentrant model
  1660 ;;
  1661                           
  1662                           	psect	text8
  1663   0016AC                     __ptext8:
  1664                           	callstack 0
  1665   0016AC                     _Timer3_Defualt_Interrupt_Hundeller:
  1666                           	callstack 25
  1667   0016AC                     
  1668                           ;application.c: 60: ++timer3_flag;
  1669   0016AC  4A0D               	infsnz	_timer3_flag^0,f,c	;volatile
  1670   0016AE  2A0E               	incf	(_timer3_flag+1)^0,f,c	;volatile
  1671   0016B0  0012               	return		;funcret
  1672   0016B2                     __end_of_Timer3_Defualt_Interrupt_Hundeller:
  1673                           	callstack 0
  1674                           
  1675 ;; *************** function _TIMER2_ISR *****************
  1676 ;; Defined at:
  1677 ;;		line 89 in file "MCAL_Layer/Timer2/hal_timer2.c"
  1678 ;; Parameters:    Size  Location     Type
  1679 ;;		None
  1680 ;; Auto vars:     Size  Location     Type
  1681 ;;		None
  1682 ;; Return value:  Size  Location     Type
  1683 ;;                  1    wreg      void 
  1684 ;; Registers used:
  1685 ;;		None
  1686 ;; Tracked objects:
  1687 ;;		On entry : 0/0
  1688 ;;		On exit  : 0/0
  1689 ;;		Unchanged: 0/0
  1690 ;; Data sizes:     COMRAM   BANK0   BANK1   BANK2   BANK3   BANK4   BANK5   BANK6   BANK7   BANK8   BANK9  BANK10  BANK1
      +1  BANK12  BANK13  BANK14  BANK15
  1691 ;;      Params:         0       0       0       0       0       0       0       0       0       0       0       0       
      +0       0       0       0       0
  1692 ;;      Locals:         0       0       0       0       0       0       0       0       0       0       0       0       
      +0       0       0       0       0
  1693 ;;      Temps:          0       0       0       0       0       0       0       0       0       0       0       0       
      +0       0       0       0       0
  1694 ;;      Totals:         0       0       0       0       0       0       0       0       0       0       0       0       
      +0       0       0       0       0
  1695 ;;Total ram usage:        0 bytes
  1696 ;; Hardware stack levels used: 1
  1697 ;; This function calls:
  1698 ;;		Nothing
  1699 ;; This function is called by:
  1700 ;;		_Interrupt_Manager
  1701 ;; This function uses a non-reentrant model
  1702 ;;
  1703                           
  1704                           	psect	text9
  1705   0016A4                     __ptext9:
  1706                           	callstack 0
  1707   0016A4                     _TIMER2_ISR:
  1708                           	callstack 26
  1709   0016A4                     
  1710                           ;MCAL_Layer/Timer2/hal_timer2.c: 90:   (PIR1bits.TMR2IF = 0);
  1711   0016A4  929E               	bcf	158,1,c	;volatile
  1712                           
  1713                           ;MCAL_Layer/Timer2/hal_timer2.c: 91:   TMR2 = timer2_preloaded;
  1714   0016A6  C02F  FFCC         	movff	_timer2_preloaded,4044	;volatile
  1715   0016AA  0012               	return		;funcret
  1716   0016AC                     __end_of_TIMER2_ISR:
  1717                           	callstack 0
  1718                           
  1719 ;; *************** function _TIMER1_ISR *****************
  1720 ;; Defined at:
  1721 ;;		line 116 in file "MCAL_Layer/Timer1/hal_timer1.c"
  1722 ;; Parameters:    Size  Location     Type
  1723 ;;		None
  1724 ;; Auto vars:     Size  Location     Type
  1725 ;;		None
  1726 ;; Return value:  Size  Location     Type
  1727 ;;                  1    wreg      void 
  1728 ;; Registers used:
  1729 ;;		wreg, status,2
  1730 ;; Tracked objects:
  1731 ;;		On entry : 0/0
  1732 ;;		On exit  : 0/0
  1733 ;;		Unchanged: 0/0
  1734 ;; Data sizes:     COMRAM   BANK0   BANK1   BANK2   BANK3   BANK4   BANK5   BANK6   BANK7   BANK8   BANK9  BANK10  BANK1
      +1  BANK12  BANK13  BANK14  BANK15
  1735 ;;      Params:         0       0       0       0       0       0       0       0       0       0       0       0       
      +0       0       0       0       0
  1736 ;;      Locals:         0       0       0       0       0       0       0       0       0       0       0       0       
      +0       0       0       0       0
  1737 ;;      Temps:          0       0       0       0       0       0       0       0       0       0       0       0       
      +0       0       0       0       0
  1738 ;;      Totals:         0       0       0       0       0       0       0       0       0       0       0       0       
      +0       0       0       0       0
  1739 ;;Total ram usage:        0 bytes
  1740 ;; Hardware stack levels used: 1
  1741 ;; This function calls:
  1742 ;;		Nothing
  1743 ;; This function is called by:
  1744 ;;		_Interrupt_Manager
  1745 ;; This function uses a non-reentrant model
  1746 ;;
  1747                           
  1748                           	psect	text10
  1749   00168C                     __ptext10:
  1750                           	callstack 0
  1751   00168C                     _TIMER1_ISR:
  1752                           	callstack 26
  1753   00168C                     
  1754                           ;MCAL_Layer/Timer1/hal_timer1.c: 117: (PIR1bits.TMR1IF = 0);
  1755   00168C  909E               	bcf	158,0,c	;volatile
  1756   00168E                     
  1757                           ;MCAL_Layer/Timer1/hal_timer1.c: 118: TMR1H = (timer1_preload)>>8;
  1758   00168E  5010               	movf	(_timer1_preload+1)^0,w,c
  1759   001690  6ECF               	movwf	207,c	;volatile
  1760   001692                     
  1761                           ;MCAL_Layer/Timer1/hal_timer1.c: 119: TMR1L = (uint_8)(timer1_preload);
  1762   001692  C00F  FFCE         	movff	_timer1_preload,4046	;volatile
  1763   001696  0012               	return		;funcret
  1764   001698                     __end_of_TIMER1_ISR:
  1765                           	callstack 0
  1766                           
  1767 ;; *************** function _TIMER0_ISR *****************
  1768 ;; Defined at:
  1769 ;;		line 95 in file "MCAL_Layer/Timer/hal_Timer0.c"
  1770 ;; Parameters:    Size  Location     Type
  1771 ;;		None
  1772 ;; Auto vars:     Size  Location     Type
  1773 ;;		None
  1774 ;; Return value:  Size  Location     Type
  1775 ;;                  1    wreg      void 
  1776 ;; Registers used:
  1777 ;;		wreg, status,2
  1778 ;; Tracked objects:
  1779 ;;		On entry : 0/0
  1780 ;;		On exit  : 0/0
  1781 ;;		Unchanged: 0/0
  1782 ;; Data sizes:     COMRAM   BANK0   BANK1   BANK2   BANK3   BANK4   BANK5   BANK6   BANK7   BANK8   BANK9  BANK10  BANK1
      +1  BANK12  BANK13  BANK14  BANK15
  1783 ;;      Params:         0       0       0       0       0       0       0       0       0       0       0       0       
      +0       0       0       0       0
  1784 ;;      Locals:         0       0       0       0       0       0       0       0       0       0       0       0       
      +0       0       0       0       0
  1785 ;;      Temps:          0       0       0       0       0       0       0       0       0       0       0       0       
      +0       0       0       0       0
  1786 ;;      Totals:         0       0       0       0       0       0       0       0       0       0       0       0       
      +0       0       0       0       0
  1787 ;;Total ram usage:        0 bytes
  1788 ;; Hardware stack levels used: 1
  1789 ;; This function calls:
  1790 ;;		Nothing
  1791 ;; This function is called by:
  1792 ;;		_Interrupt_Manager
  1793 ;; This function uses a non-reentrant model
  1794 ;;
  1795                           
  1796                           	psect	text11
  1797   001698                     __ptext11:
  1798                           	callstack 0
  1799   001698                     _TIMER0_ISR:
  1800                           	callstack 26
  1801   001698                     
  1802                           ;MCAL_Layer/Timer/hal_Timer0.c: 96: (INTCONbits.TMR0IF = 0);
  1803   001698  94F2               	bcf	242,2,c	;volatile
  1804   00169A                     
  1805                           ;MCAL_Layer/Timer/hal_Timer0.c: 97: TMR0H = (timer0_preload)>>8;
  1806   00169A  5014               	movf	(_timer0_preload+1)^0,w,c
  1807   00169C  6ED7               	movwf	215,c	;volatile
  1808   00169E                     
  1809                           ;MCAL_Layer/Timer/hal_Timer0.c: 98: TMR0L = (uint_8)(timer0_preload);
  1810   00169E  C013  FFD6         	movff	_timer0_preload,4054	;volatile
  1811   0016A2  0012               	return		;funcret
  1812   0016A4                     __end_of_TIMER0_ISR:
  1813                           	callstack 0
  1814                           
  1815 ;; *************** function _RB7_ISR *****************
  1816 ;; Defined at:
  1817 ;;		line 500 in file "MCAL_Layer/interrupt/mcal_external_interrupt.c"
  1818 ;; Parameters:    Size  Location     Type
  1819 ;;  source          1    wreg     unsigned char 
  1820 ;; Auto vars:     Size  Location     Type
  1821 ;;  source          1    0[COMRAM] unsigned char 
  1822 ;; Return value:  Size  Location     Type
  1823 ;;                  1    wreg      void 
  1824 ;; Registers used:
  1825 ;;		wreg, status,2, status,0
  1826 ;; Tracked objects:
  1827 ;;		On entry : 0/0
  1828 ;;		On exit  : 0/0
  1829 ;;		Unchanged: 0/0
  1830 ;; Data sizes:     COMRAM   BANK0   BANK1   BANK2   BANK3   BANK4   BANK5   BANK6   BANK7   BANK8   BANK9  BANK10  BANK1
      +1  BANK12  BANK13  BANK14  BANK15
  1831 ;;      Params:         0       0       0       0       0       0       0       0       0       0       0       0       
      +0       0       0       0       0
  1832 ;;      Locals:         1       0       0       0       0       0       0       0       0       0       0       0       
      +0       0       0       0       0
  1833 ;;      Temps:          0       0       0       0       0       0       0       0       0       0       0       0       
      +0       0       0       0       0
  1834 ;;      Totals:         1       0       0       0       0       0       0       0       0       0       0       0       
      +0       0       0       0       0
  1835 ;;Total ram usage:        1 bytes
  1836 ;; Hardware stack levels used: 1
  1837 ;; This function calls:
  1838 ;;		Nothing
  1839 ;; This function is called by:
  1840 ;;		_Interrupt_Manager
  1841 ;; This function uses a non-reentrant model
  1842 ;;
  1843                           
  1844                           	psect	text12
  1845   001624                     __ptext12:
  1846                           	callstack 0
  1847   001624                     _RB7_ISR:
  1848                           	callstack 26
  1849                           
  1850                           ;incstack = 0
  1851                           ;RB7_ISR@source stored from wreg
  1852   001624  6E69               	movwf	RB7_ISR@source^0,c
  1853   001626                     
  1854                           ;MCAL_Layer/interrupt/mcal_external_interrupt.c: 501:  (INTCONbits.RBIF = 0);
  1855   001626  90F2               	bcf	242,0,c	;volatile
  1856   001628                     
  1857                           ;MCAL_Layer/interrupt/mcal_external_interrupt.c: 502: if(source == 0){
  1858   001628  5069               	movf	RB7_ISR@source^0,w,c
  1859   00162A  A4D8               	btfss	status,2,c
  1860   00162C  EF1A  F00B         	goto	i2u48_41
  1861   001630  EF1C  F00B         	goto	i2u48_40
  1862   001634                     i2u48_41:
  1863   001634  EF1E  F00B         	goto	i2l2309
  1864   001638                     i2u48_40:
  1865   001638  EF1E  F00B         	goto	i2l811
  1866   00163C                     i2l2309:
  1867   00163C                     i2l811:
  1868   00163C  0012               	return		;funcret
  1869   00163E                     __end_of_RB7_ISR:
  1870                           	callstack 0
  1871                           
  1872 ;; *************** function _RB6_ISR *****************
  1873 ;; Defined at:
  1874 ;;		line 488 in file "MCAL_Layer/interrupt/mcal_external_interrupt.c"
  1875 ;; Parameters:    Size  Location     Type
  1876 ;;  source          1    wreg     unsigned char 
  1877 ;; Auto vars:     Size  Location     Type
  1878 ;;  source          1    0[COMRAM] unsigned char 
  1879 ;; Return value:  Size  Location     Type
  1880 ;;                  1    wreg      void 
  1881 ;; Registers used:
  1882 ;;		wreg, status,2, status,0
  1883 ;; Tracked objects:
  1884 ;;		On entry : 0/0
  1885 ;;		On exit  : 0/0
  1886 ;;		Unchanged: 0/0
  1887 ;; Data sizes:     COMRAM   BANK0   BANK1   BANK2   BANK3   BANK4   BANK5   BANK6   BANK7   BANK8   BANK9  BANK10  BANK1
      +1  BANK12  BANK13  BANK14  BANK15
  1888 ;;      Params:         0       0       0       0       0       0       0       0       0       0       0       0       
      +0       0       0       0       0
  1889 ;;      Locals:         1       0       0       0       0       0       0       0       0       0       0       0       
      +0       0       0       0       0
  1890 ;;      Temps:          0       0       0       0       0       0       0       0       0       0       0       0       
      +0       0       0       0       0
  1891 ;;      Totals:         1       0       0       0       0       0       0       0       0       0       0       0       
      +0       0       0       0       0
  1892 ;;Total ram usage:        1 bytes
  1893 ;; Hardware stack levels used: 1
  1894 ;; This function calls:
  1895 ;;		Nothing
  1896 ;; This function is called by:
  1897 ;;		_Interrupt_Manager
  1898 ;; This function uses a non-reentrant model
  1899 ;;
  1900                           
  1901                           	psect	text13
  1902   00163E                     __ptext13:
  1903                           	callstack 0
  1904   00163E                     _RB6_ISR:
  1905                           	callstack 26
  1906                           
  1907                           ;incstack = 0
  1908                           ;RB6_ISR@source stored from wreg
  1909   00163E  6E69               	movwf	RB6_ISR@source^0,c
  1910   001640                     
  1911                           ;MCAL_Layer/interrupt/mcal_external_interrupt.c: 489:  (INTCONbits.RBIF = 0);
  1912   001640  90F2               	bcf	242,0,c	;volatile
  1913   001642                     
  1914                           ;MCAL_Layer/interrupt/mcal_external_interrupt.c: 490: if(source == 0){
  1915   001642  5069               	movf	RB6_ISR@source^0,w,c
  1916   001644  A4D8               	btfss	status,2,c
  1917   001646  EF27  F00B         	goto	i2u47_41
  1918   00164A  EF29  F00B         	goto	i2u47_40
  1919   00164E                     i2u47_41:
  1920   00164E  EF2B  F00B         	goto	i2l2295
  1921   001652                     i2u47_40:
  1922   001652  EF2B  F00B         	goto	i2l800
  1923   001656                     i2l2295:
  1924   001656                     i2l800:
  1925   001656  0012               	return		;funcret
  1926   001658                     __end_of_RB6_ISR:
  1927                           	callstack 0
  1928                           
  1929 ;; *************** function _RB5_ISR *****************
  1930 ;; Defined at:
  1931 ;;		line 476 in file "MCAL_Layer/interrupt/mcal_external_interrupt.c"
  1932 ;; Parameters:    Size  Location     Type
  1933 ;;  source          1    wreg     unsigned char 
  1934 ;; Auto vars:     Size  Location     Type
  1935 ;;  source          1    0[COMRAM] unsigned char 
  1936 ;; Return value:  Size  Location     Type
  1937 ;;                  1    wreg      void 
  1938 ;; Registers used:
  1939 ;;		wreg, status,2, status,0
  1940 ;; Tracked objects:
  1941 ;;		On entry : 0/0
  1942 ;;		On exit  : 0/0
  1943 ;;		Unchanged: 0/0
  1944 ;; Data sizes:     COMRAM   BANK0   BANK1   BANK2   BANK3   BANK4   BANK5   BANK6   BANK7   BANK8   BANK9  BANK10  BANK1
      +1  BANK12  BANK13  BANK14  BANK15
  1945 ;;      Params:         0       0       0       0       0       0       0       0       0       0       0       0       
      +0       0       0       0       0
  1946 ;;      Locals:         1       0       0       0       0       0       0       0       0       0       0       0       
      +0       0       0       0       0
  1947 ;;      Temps:          0       0       0       0       0       0       0       0       0       0       0       0       
      +0       0       0       0       0
  1948 ;;      Totals:         1       0       0       0       0       0       0       0       0       0       0       0       
      +0       0       0       0       0
  1949 ;;Total ram usage:        1 bytes
  1950 ;; Hardware stack levels used: 1
  1951 ;; This function calls:
  1952 ;;		Nothing
  1953 ;; This function is called by:
  1954 ;;		_Interrupt_Manager
  1955 ;; This function uses a non-reentrant model
  1956 ;;
  1957                           
  1958                           	psect	text14
  1959   001658                     __ptext14:
  1960                           	callstack 0
  1961   001658                     _RB5_ISR:
  1962                           	callstack 26
  1963                           
  1964                           ;incstack = 0
  1965                           ;RB5_ISR@source stored from wreg
  1966   001658  6E69               	movwf	RB5_ISR@source^0,c
  1967   00165A                     
  1968                           ;MCAL_Layer/interrupt/mcal_external_interrupt.c: 477:  (INTCONbits.RBIF = 0);
  1969   00165A  90F2               	bcf	242,0,c	;volatile
  1970   00165C                     
  1971                           ;MCAL_Layer/interrupt/mcal_external_interrupt.c: 478: if(source == 0){
  1972   00165C  5069               	movf	RB5_ISR@source^0,w,c
  1973   00165E  A4D8               	btfss	status,2,c
  1974   001660  EF34  F00B         	goto	i2u46_41
  1975   001664  EF36  F00B         	goto	i2u46_40
  1976   001668                     i2u46_41:
  1977   001668  EF38  F00B         	goto	i2l2281
  1978   00166C                     i2u46_40:
  1979   00166C  EF38  F00B         	goto	i2l789
  1980   001670                     i2l2281:
  1981   001670                     i2l789:
  1982   001670  0012               	return		;funcret
  1983   001672                     __end_of_RB5_ISR:
  1984                           	callstack 0
  1985                           
  1986 ;; *************** function _RB4_ISR *****************
  1987 ;; Defined at:
  1988 ;;		line 463 in file "MCAL_Layer/interrupt/mcal_external_interrupt.c"
  1989 ;; Parameters:    Size  Location     Type
  1990 ;;  source          1    wreg     unsigned char 
  1991 ;; Auto vars:     Size  Location     Type
  1992 ;;  source          1    0[COMRAM] unsigned char 
  1993 ;; Return value:  Size  Location     Type
  1994 ;;                  1    wreg      void 
  1995 ;; Registers used:
  1996 ;;		wreg, status,2, status,0
  1997 ;; Tracked objects:
  1998 ;;		On entry : 0/0
  1999 ;;		On exit  : 0/0
  2000 ;;		Unchanged: 0/0
  2001 ;; Data sizes:     COMRAM   BANK0   BANK1   BANK2   BANK3   BANK4   BANK5   BANK6   BANK7   BANK8   BANK9  BANK10  BANK1
      +1  BANK12  BANK13  BANK14  BANK15
  2002 ;;      Params:         0       0       0       0       0       0       0       0       0       0       0       0       
      +0       0       0       0       0
  2003 ;;      Locals:         1       0       0       0       0       0       0       0       0       0       0       0       
      +0       0       0       0       0
  2004 ;;      Temps:          0       0       0       0       0       0       0       0       0       0       0       0       
      +0       0       0       0       0
  2005 ;;      Totals:         1       0       0       0       0       0       0       0       0       0       0       0       
      +0       0       0       0       0
  2006 ;;Total ram usage:        1 bytes
  2007 ;; Hardware stack levels used: 1
  2008 ;; This function calls:
  2009 ;;		Nothing
  2010 ;; This function is called by:
  2011 ;;		_Interrupt_Manager
  2012 ;; This function uses a non-reentrant model
  2013 ;;
  2014                           
  2015                           	psect	text15
  2016   001672                     __ptext15:
  2017                           	callstack 0
  2018   001672                     _RB4_ISR:
  2019                           	callstack 26
  2020                           
  2021                           ;incstack = 0
  2022                           ;RB4_ISR@source stored from wreg
  2023   001672  6E69               	movwf	RB4_ISR@source^0,c
  2024   001674                     
  2025                           ;MCAL_Layer/interrupt/mcal_external_interrupt.c: 464: (INTCONbits.RBIF = 0);
  2026   001674  90F2               	bcf	242,0,c	;volatile
  2027   001676                     
  2028                           ;MCAL_Layer/interrupt/mcal_external_interrupt.c: 466: if(source == 0){
  2029   001676  5069               	movf	RB4_ISR@source^0,w,c
  2030   001678  A4D8               	btfss	status,2,c
  2031   00167A  EF41  F00B         	goto	i2u45_41
  2032   00167E  EF43  F00B         	goto	i2u45_40
  2033   001682                     i2u45_41:
  2034   001682  EF45  F00B         	goto	i2l2267
  2035   001686                     i2u45_40:
  2036   001686  EF45  F00B         	goto	i2l778
  2037   00168A                     i2l2267:
  2038   00168A                     i2l778:
  2039   00168A  0012               	return		;funcret
  2040   00168C                     __end_of_RB4_ISR:
  2041                           	callstack 0
  2042                           
  2043 ;; *************** function _INT2_ISR *****************
  2044 ;; Defined at:
  2045 ;;		line 454 in file "MCAL_Layer/interrupt/mcal_external_interrupt.c"
  2046 ;; Parameters:    Size  Location     Type
  2047 ;;		None
  2048 ;; Auto vars:     Size  Location     Type
  2049 ;;		None
  2050 ;; Return value:  Size  Location     Type
  2051 ;;                  1    wreg      void 
  2052 ;; Registers used:
  2053 ;;		None
  2054 ;; Tracked objects:
  2055 ;;		On entry : 0/0
  2056 ;;		On exit  : 0/0
  2057 ;;		Unchanged: 0/0
  2058 ;; Data sizes:     COMRAM   BANK0   BANK1   BANK2   BANK3   BANK4   BANK5   BANK6   BANK7   BANK8   BANK9  BANK10  BANK1
      +1  BANK12  BANK13  BANK14  BANK15
  2059 ;;      Params:         0       0       0       0       0       0       0       0       0       0       0       0       
      +0       0       0       0       0
  2060 ;;      Locals:         0       0       0       0       0       0       0       0       0       0       0       0       
      +0       0       0       0       0
  2061 ;;      Temps:          0       0       0       0       0       0       0       0       0       0       0       0       
      +0       0       0       0       0
  2062 ;;      Totals:         0       0       0       0       0       0       0       0       0       0       0       0       
      +0       0       0       0       0
  2063 ;;Total ram usage:        0 bytes
  2064 ;; Hardware stack levels used: 1
  2065 ;; This function calls:
  2066 ;;		Nothing
  2067 ;; This function is called by:
  2068 ;;		_Interrupt_Manager
  2069 ;; This function uses a non-reentrant model
  2070 ;;
  2071                           
  2072                           	psect	text16
  2073   0016B2                     __ptext16:
  2074                           	callstack 0
  2075   0016B2                     _INT2_ISR:
  2076                           	callstack 26
  2077   0016B2                     
  2078                           ;MCAL_Layer/interrupt/mcal_external_interrupt.c: 456:     (INTCON3bits.INT2IF = 0);
  2079   0016B2  92F0               	bcf	240,1,c	;volatile
  2080   0016B4  0012               	return		;funcret
  2081   0016B6                     __end_of_INT2_ISR:
  2082                           	callstack 0
  2083                           
  2084 ;; *************** function _INT1_ISR *****************
  2085 ;; Defined at:
  2086 ;;		line 446 in file "MCAL_Layer/interrupt/mcal_external_interrupt.c"
  2087 ;; Parameters:    Size  Location     Type
  2088 ;;		None
  2089 ;; Auto vars:     Size  Location     Type
  2090 ;;		None
  2091 ;; Return value:  Size  Location     Type
  2092 ;;                  1    wreg      void 
  2093 ;; Registers used:
  2094 ;;		None
  2095 ;; Tracked objects:
  2096 ;;		On entry : 0/0
  2097 ;;		On exit  : 0/0
  2098 ;;		Unchanged: 0/0
  2099 ;; Data sizes:     COMRAM   BANK0   BANK1   BANK2   BANK3   BANK4   BANK5   BANK6   BANK7   BANK8   BANK9  BANK10  BANK1
      +1  BANK12  BANK13  BANK14  BANK15
  2100 ;;      Params:         0       0       0       0       0       0       0       0       0       0       0       0       
      +0       0       0       0       0
  2101 ;;      Locals:         0       0       0       0       0       0       0       0       0       0       0       0       
      +0       0       0       0       0
  2102 ;;      Temps:          0       0       0       0       0       0       0       0       0       0       0       0       
      +0       0       0       0       0
  2103 ;;      Totals:         0       0       0       0       0       0       0       0       0       0       0       0       
      +0       0       0       0       0
  2104 ;;Total ram usage:        0 bytes
  2105 ;; Hardware stack levels used: 1
  2106 ;; This function calls:
  2107 ;;		Nothing
  2108 ;; This function is called by:
  2109 ;;		_Interrupt_Manager
  2110 ;; This function uses a non-reentrant model
  2111 ;;
  2112                           
  2113                           	psect	text17
  2114   0016B6                     __ptext17:
  2115                           	callstack 0
  2116   0016B6                     _INT1_ISR:
  2117                           	callstack 26
  2118   0016B6                     
  2119                           ;MCAL_Layer/interrupt/mcal_external_interrupt.c: 448:     (INTCON3bits.INT1IF = 0);
  2120   0016B6  90F0               	bcf	240,0,c	;volatile
  2121   0016B8  0012               	return		;funcret
  2122   0016BA                     __end_of_INT1_ISR:
  2123                           	callstack 0
  2124                           
  2125 ;; *************** function _INT0_ISR *****************
  2126 ;; Defined at:
  2127 ;;		line 438 in file "MCAL_Layer/interrupt/mcal_external_interrupt.c"
  2128 ;; Parameters:    Size  Location     Type
  2129 ;;		None
  2130 ;; Auto vars:     Size  Location     Type
  2131 ;;		None
  2132 ;; Return value:  Size  Location     Type
  2133 ;;                  1    wreg      void 
  2134 ;; Registers used:
  2135 ;;		None
  2136 ;; Tracked objects:
  2137 ;;		On entry : 0/0
  2138 ;;		On exit  : 0/0
  2139 ;;		Unchanged: 0/0
  2140 ;; Data sizes:     COMRAM   BANK0   BANK1   BANK2   BANK3   BANK4   BANK5   BANK6   BANK7   BANK8   BANK9  BANK10  BANK1
      +1  BANK12  BANK13  BANK14  BANK15
  2141 ;;      Params:         0       0       0       0       0       0       0       0       0       0       0       0       
      +0       0       0       0       0
  2142 ;;      Locals:         0       0       0       0       0       0       0       0       0       0       0       0       
      +0       0       0       0       0
  2143 ;;      Temps:          0       0       0       0       0       0       0       0       0       0       0       0       
      +0       0       0       0       0
  2144 ;;      Totals:         0       0       0       0       0       0       0       0       0       0       0       0       
      +0       0       0       0       0
  2145 ;;Total ram usage:        0 bytes
  2146 ;; Hardware stack levels used: 1
  2147 ;; This function calls:
  2148 ;;		Nothing
  2149 ;; This function is called by:
  2150 ;;		_Interrupt_Manager
  2151 ;; This function uses a non-reentrant model
  2152 ;;
  2153                           
  2154                           	psect	text18
  2155   0016BA                     __ptext18:
  2156                           	callstack 0
  2157   0016BA                     _INT0_ISR:
  2158                           	callstack 26
  2159   0016BA                     
  2160                           ;MCAL_Layer/interrupt/mcal_external_interrupt.c: 440:     (INTCONbits.INT0IF = 0);
  2161   0016BA  92F2               	bcf	242,1,c	;volatile
  2162   0016BC  0012               	return		;funcret
  2163   0016BE                     __end_of_INT0_ISR:
  2164                           	callstack 0
  2165                           
  2166 ;; *************** function _ADC_ISR *****************
  2167 ;; Defined at:
  2168 ;;		line 265 in file "MCAL_Layer/ADC/hal_adc.c"
  2169 ;; Parameters:    Size  Location     Type
  2170 ;;		None
  2171 ;; Auto vars:     Size  Location     Type
  2172 ;;		None
  2173 ;; Return value:  Size  Location     Type
  2174 ;;                  1    wreg      void 
  2175 ;; Registers used:
  2176 ;;		None
  2177 ;; Tracked objects:
  2178 ;;		On entry : 0/0
  2179 ;;		On exit  : 0/0
  2180 ;;		Unchanged: 0/0
  2181 ;; Data sizes:     COMRAM   BANK0   BANK1   BANK2   BANK3   BANK4   BANK5   BANK6   BANK7   BANK8   BANK9  BANK10  BANK1
      +1  BANK12  BANK13  BANK14  BANK15
  2182 ;;      Params:         0       0       0       0       0       0       0       0       0       0       0       0       
      +0       0       0       0       0
  2183 ;;      Locals:         0       0       0       0       0       0       0       0       0       0       0       0       
      +0       0       0       0       0
  2184 ;;      Temps:          0       0       0       0       0       0       0       0       0       0       0       0       
      +0       0       0       0       0
  2185 ;;      Totals:         0       0       0       0       0       0       0       0       0       0       0       0       
      +0       0       0       0       0
  2186 ;;Total ram usage:        0 bytes
  2187 ;; Hardware stack levels used: 1
  2188 ;; This function calls:
  2189 ;;		Nothing
  2190 ;; This function is called by:
  2191 ;;		_Interrupt_Manager
  2192 ;; This function uses a non-reentrant model
  2193 ;;
  2194                           
  2195                           	psect	text19
  2196   0016BE                     __ptext19:
  2197                           	callstack 0
  2198   0016BE                     _ADC_ISR:
  2199                           	callstack 26
  2200   0016BE                     
  2201                           ;MCAL_Layer/ADC/hal_adc.c: 266: (PIR1bits.ADIF = 0);
  2202   0016BE  9C9E               	bcf	158,6,c	;volatile
  2203   0016C0  0012               	return		;funcret
  2204   0016C2                     __end_of_ADC_ISR:
  2205                           	callstack 0
  2206                           
  2207                           	psect	text20
  2208   000000                     __ptext20:
  2209                           	callstack 0
  2210   000000                     
  2211                           	psect	rparam
  2212   000000                     
  2213                           	psect	temp
  2214   000079                     btemp:
  2215                           	callstack 0
  2216   000079                     	ds	1
  2217   000000                     int$flags	set	btemp
  2218   000000                     wtemp8	set	btemp+1
  2219   000000                     ttemp5	set	btemp+1
  2220   000000                     ttemp6	set	btemp+4
  2221   000000                     ttemp7	set	btemp+8
  2222                           
  2223                           	psect	config
  2224                           
  2225                           ; Padding undefined space
  2226   300000                     	org	3145728
  2227   300000  FF                 	db	255
  2228                           
  2229                           ;Config register CONFIG1H @ 0x300001
  2230                           ;	Oscillator Selection bits
  2231                           ;	OSC = HS, HS oscillator
  2232                           ;	Fail-Safe Clock Monitor Enable bit
  2233                           ;	FCMEN = OFF, Fail-Safe Clock Monitor disabled
  2234                           ;	Internal/External Oscillator Switchover bit
  2235                           ;	IESO = OFF, Oscillator Switchover mode disabled
  2236   300001                     	org	3145729
  2237   300001  02                 	db	2
  2238                           
  2239                           ;Config register CONFIG2L @ 0x300002
  2240                           ;	Power-up Timer Enable bit
  2241                           ;	PWRT = OFF, PWRT disabled
  2242                           ;	Brown-out Reset Enable bits
  2243                           ;	BOREN = SBORDIS, Brown-out Reset enabled in hardware only (SBOREN is disabled)
  2244                           ;	Brown Out Reset Voltage bits
  2245                           ;	BORV = 3, Minimum setting
  2246   300002                     	org	3145730
  2247   300002  1F                 	db	31
  2248                           
  2249                           ;Config register CONFIG2H @ 0x300003
  2250                           ;	Watchdog Timer Enable bit
  2251                           ;	WDT = OFF, WDT disabled (control is placed on the SWDTEN bit)
  2252                           ;	Watchdog Timer Postscale Select bits
  2253                           ;	WDTPS = 32768, 1:32768
  2254   300003                     	org	3145731
  2255   300003  1E                 	db	30
  2256                           
  2257                           ; Padding undefined space
  2258   300004                     	org	3145732
  2259   300004  FF                 	db	255
  2260                           
  2261                           ;Config register CONFIG3H @ 0x300005
  2262                           ;	CCP2 MUX bit
  2263                           ;	CCP2MX = PORTC, CCP2 input/output is multiplexed with RC1
  2264                           ;	PORTB A/D Enable bit
  2265                           ;	PBADEN = OFF, PORTB<4:0> pins are configured as digital I/O on Reset
  2266                           ;	Low-Power Timer1 Oscillator Enable bit
  2267                           ;	LPT1OSC = OFF, Timer1 configured for higher power operation
  2268                           ;	MCLR Pin Enable bit
  2269                           ;	MCLRE = ON, MCLR pin enabled; RE3 input pin disabled
  2270   300005                     	org	3145733
  2271   300005  81                 	db	129
  2272                           
  2273                           ;Config register CONFIG4L @ 0x300006
  2274                           ;	Stack Full/Underflow Reset Enable bit
  2275                           ;	STVREN = ON, Stack full/underflow will cause Reset
  2276                           ;	Single-Supply ICSP Enable bit
  2277                           ;	LVP = OFF, Single-Supply ICSP disabled
  2278                           ;	Extended Instruction Set Enable bit
  2279                           ;	XINST = OFF, Instruction set extension and Indexed Addressing mode disabled (Legacy mo
      +                          de)
  2280                           ;	Background Debugger Enable bit
  2281                           ;	DEBUG = 0x1, unprogrammed default
  2282   300006                     	org	3145734
  2283   300006  81                 	db	129
  2284                           
  2285                           ; Padding undefined space
  2286   300007                     	org	3145735
  2287   300007  FF                 	db	255
  2288                           
  2289                           ;Config register CONFIG5L @ 0x300008
  2290                           ;	Code Protection bit
  2291                           ;	CP0 = OFF, Block 0 (000800-003FFFh) not code-protected
  2292                           ;	Code Protection bit
  2293                           ;	CP1 = OFF, Block 1 (004000-007FFFh) not code-protected
  2294                           ;	Code Protection bit
  2295                           ;	CP2 = OFF, Block 2 (008000-00BFFFh) not code-protected
  2296                           ;	Code Protection bit
  2297                           ;	CP3 = OFF, Block 3 (00C000-00FFFFh) not code-protected
  2298   300008                     	org	3145736
  2299   300008  0F                 	db	15
  2300                           
  2301                           ;Config register CONFIG5H @ 0x300009
  2302                           ;	Boot Block Code Protection bit
  2303                           ;	CPB = OFF, Boot block (000000-0007FFh) not code-protected
  2304                           ;	Data EEPROM Code Protection bit
  2305                           ;	CPD = OFF, Data EEPROM not code-protected
  2306   300009                     	org	3145737
  2307   300009  C0                 	db	192
  2308                           
  2309                           ;Config register CONFIG6L @ 0x30000A
  2310                           ;	Write Protection bit
  2311                           ;	WRT0 = OFF, Block 0 (000800-003FFFh) not write-protected
  2312                           ;	Write Protection bit
  2313                           ;	WRT1 = OFF, Block 1 (004000-007FFFh) not write-protected
  2314                           ;	Write Protection bit
  2315                           ;	WRT2 = OFF, Block 2 (008000-00BFFFh) not write-protected
  2316                           ;	Write Protection bit
  2317                           ;	WRT3 = OFF, Block 3 (00C000-00FFFFh) not write-protected
  2318   30000A                     	org	3145738
  2319   30000A  0F                 	db	15
  2320                           
  2321                           ;Config register CONFIG6H @ 0x30000B
  2322                           ;	Configuration Register Write Protection bit
  2323                           ;	WRTC = OFF, Configuration registers (300000-3000FFh) not write-protected
  2324                           ;	Boot Block Write Protection bit
  2325                           ;	WRTB = OFF, Boot Block (000000-0007FFh) not write-protected
  2326                           ;	Data EEPROM Write Protection bit
  2327                           ;	WRTD = OFF, Data EEPROM not write-protected
  2328   30000B                     	org	3145739
  2329   30000B  E0                 	db	224
  2330                           
  2331                           ;Config register CONFIG7L @ 0x30000C
  2332                           ;	Table Read Protection bit
  2333                           ;	EBTR0 = OFF, Block 0 (000800-003FFFh) not protected from table reads executed in other
      +                           blocks
  2334                           ;	Table Read Protection bit
  2335                           ;	EBTR1 = OFF, Block 1 (004000-007FFFh) not protected from table reads executed in other
      +                           blocks
  2336                           ;	Table Read Protection bit
  2337                           ;	EBTR2 = OFF, Block 2 (008000-00BFFFh) not protected from table reads executed in other
      +                           blocks
  2338                           ;	Table Read Protection bit
  2339                           ;	EBTR3 = OFF, Block 3 (00C000-00FFFFh) not protected from table reads executed in other
      +                           blocks
  2340   30000C                     	org	3145740
  2341   30000C  0F                 	db	15
  2342                           
  2343                           ;Config register CONFIG7H @ 0x30000D
  2344                           ;	Boot Block Table Read Protection bit
  2345                           ;	EBTRB = OFF, Boot Block (000000-0007FFh) not protected from table reads executed in ot
      +                          her blocks
  2346   30000D                     	org	3145741
  2347   30000D  40                 	db	64
  2348                           tosu	equ	0xFFF
  2349                           tosh	equ	0xFFE
  2350                           tosl	equ	0xFFD
  2351                           stkptr	equ	0xFFC
  2352                           pclatu	equ	0xFFB
  2353                           pclath	equ	0xFFA
  2354                           pcl	equ	0xFF9
  2355                           tblptru	equ	0xFF8
  2356                           tblptrh	equ	0xFF7
  2357                           tblptrl	equ	0xFF6
  2358                           tablat	equ	0xFF5
  2359                           prodh	equ	0xFF4
  2360                           prodl	equ	0xFF3
  2361                           indf0	equ	0xFEF
  2362                           postinc0	equ	0xFEE
  2363                           postdec0	equ	0xFED
  2364                           preinc0	equ	0xFEC
  2365                           plusw0	equ	0xFEB
  2366                           fsr0h	equ	0xFEA
  2367                           fsr0l	equ	0xFE9
  2368                           wreg	equ	0xFE8
  2369                           indf1	equ	0xFE7
  2370                           postinc1	equ	0xFE6
  2371                           postdec1	equ	0xFE5
  2372                           preinc1	equ	0xFE4
  2373                           plusw1	equ	0xFE3
  2374                           fsr1h	equ	0xFE2
  2375                           fsr1l	equ	0xFE1
  2376                           bsr	equ	0xFE0
  2377                           indf2	equ	0xFDF
  2378                           postinc2	equ	0xFDE
  2379                           postdec2	equ	0xFDD
  2380                           preinc2	equ	0xFDC
  2381                           plusw2	equ	0xFDB
  2382                           fsr2h	equ	0xFDA
  2383                           fsr2l	equ	0xFD9
  2384                           status	equ	0xFD8

Data Sizes:
    Strings     6
    Constant    0
    Data        99
    BSS         63
    Persistent  0
    Stack       0

Auto Spaces:
    Space          Size  Autos    Used
    COMRAM          126     16     120
    BANK0           128      0      58
    BANK1           256      0       0
    BANK2           256      0       0
    BANK3           256      0       0
    BANK4           256      0       0
    BANK5           256      0       0
    BANK6           256      0       0
    BANK7           256      0       0
    BANK8           256      0       0
    BANK9           256      0       0
    BANK10          256      0       0
    BANK11          256      0       0
    BANK12          256      0       0
    BANK13          256      0       0
    BANK14          256      0       0
    BANK15          128      0       0

Pointer List with Targets:

    vfprintf$2	PTR PTR void  size(2) Largest target is 2
		 -> sprintf@ap(COMRAM[2]), 

    vfprintf$1	PTR const unsigned char  size(2) Largest target is 3
		 -> STR_6(CODE[3]), STR_4(CODE[3]), STR_2(CODE[3]), 

    vfprintf$0	PTR struct _IO_FILE size(2) Largest target is 12
		 -> sprintf@f(COMRAM[12]), 

    S3207$source	PTR const unsigned char  size(2) Largest target is 0

    f...source	PTR const unsigned char  size(2) Largest target is 0

    S3207$buffer	PTR unsigned char  size(2) Largest target is 0

    f...buffer	PTR unsigned char  size(2) Largest target is 0

    Timer3_Mode_Select@timer3.TMR3_Interrupt_Hundeler	PTR FTN()void  size(2) Largest target is 1
		 -> Timer3_Defualt_Interrupt_Hundeller(), NULL(NULL[0]), 

    Timer3_Mode_Select@timer3	PTR const struct . size(2) Largest target is 7
		 -> counter3_object(COMRAM[7]), timer3_timer_init@timer3_object(COMRAM[7]), 

    Timer3_Read_Value@value	PTR unsigned short  size(2) Largest target is 2
		 -> counter3_flag(COMRAM[2]), 

    Timer3_Read_Value@timer3	PTR const struct . size(2) Largest target is 7
		 -> counter3_object(COMRAM[7]), 

    TMR3_Interrupt_Hundeler	PTR FTN()void  size(2) Largest target is 1
		 -> Timer3_Defualt_Interrupt_Hundeller(), NULL(), NULL(NULL[0]), 

    Timer3_Init@timer3.TMR3_Interrupt_Hundeler	PTR FTN()void  size(2) Largest target is 1
		 -> Timer3_Defualt_Interrupt_Hundeller(), NULL(NULL[0]), 

    Timer3_Init@timer3	PTR const struct . size(2) Largest target is 7
		 -> counter3_object(COMRAM[7]), timer3_timer_init@timer3_object(COMRAM[7]), 

    TMR2_Interrupt_Hundeler	PTR FTN()void  size(2) Largest target is 1
		 -> NULL(), 

    S2480$TMR2_Interrupt_Hundeler	PTR FTN()void  size(2) Largest target is 0

    Timer2_Init@timer2.TMR2_Interrupt_Hundeler	PTR FTN()void  size(2) Largest target is 0

    timer3_object.TMR3_Interrupt_Hundeler	PTR FTN()void  size(2) Largest target is 1
		 -> Timer3_Defualt_Interrupt_Hundeller(), NULL(NULL[0]), 

    S2326$TMR3_Interrupt_Hundeler	PTR FTN()void  size(2) Largest target is 1
		 -> Timer3_Defualt_Interrupt_Hundeller(), NULL(NULL[0]), 

    counter3_object.TMR3_Interrupt_Hundeler	PTR FTN()void  size(2) Largest target is 1
		 -> Timer3_Defualt_Interrupt_Hundeller(), NULL(NULL[0]), 

    Timer1_Mode_Select@timer1.TMR1_Interrupt_Hundeler	PTR FTN()void  size(2) Largest target is 0

    TMR1_Interrupt_Hundeler	PTR FTN()void  size(2) Largest target is 1
		 -> NULL(), 

    S2139$TMR1_Interrupt_Hundeler	PTR FTN()void  size(2) Largest target is 0

    Timer1_Init@timer1.TMR1_Interrupt_Hundeler	PTR FTN()void  size(2) Largest target is 0

    Timer0_Register_Size@timer1.TMR0_Interrupt_Hundeler	PTR FTN()void  size(2) Largest target is 0

    Timer0_Mode_Select@timer1.TMR0_Interrupt_Hundeler	PTR FTN()void  size(2) Largest target is 0

    Timer0_Prescaler_Config@timer1.TMR0_Interrupt_Hundeler	PTR FTN()void  size(2) Largest target is 0

    TMR0_Interrupt_Hundeler	PTR FTN()void  size(2) Largest target is 1
		 -> NULL(), 

    S1969$TMR0_Interrupt_Hundeler	PTR FTN()void  size(2) Largest target is 0

    Timer0_Init@timer1.TMR0_Interrupt_Hundeler	PTR FTN()void  size(2) Largest target is 0

    Interrupt_INTx_SetHandular@int_obj.Ext_Intterrupt	PTR FTN()void  size(2) Largest target is 0

    INT2_Interrupt_Handular	PTR FTN()void  size(2) Largest target is 1
		 -> NULL(), 

    INT1_Interrupt_Handular	PTR FTN()void  size(2) Largest target is 1
		 -> NULL(), 

    INT0_Interrupt_Handular	PTR FTN()void  size(2) Largest target is 1
		 -> NULL(), 

    Interrupt_INTx_Clear_Flag@int_obj.Ext_Intterrupt	PTR FTN()void  size(2) Largest target is 0

    Interrupt_INTx_Pin_Init@int_obj.Ext_Intterrupt	PTR FTN()void  size(2) Largest target is 0

    Interrupt_INTx_Edge_Init@int_obj.Ext_Intterrupt	PTR FTN()void  size(2) Largest target is 0

    Interrupt_INTx_Disable@int_obj.Ext_Intterrupt	PTR FTN()void  size(2) Largest target is 0

    S1337$Ext_Intterrupt	PTR FTN()void  size(2) Largest target is 0

    Interrupt_INTx_Enable@int_obj.Ext_Intterrupt	PTR FTN()void  size(2) Largest target is 0

    RB7_Interrupt_Handular_LOW	PTR FTN()void  size(2) Largest target is 1
		 -> NULL(), 

    RB7_Interrupt_Handular_HIGH	PTR FTN()void  size(2) Largest target is 1
		 -> NULL(), 

    RB6_Interrupt_Handular_LOW	PTR FTN()void  size(2) Largest target is 1
		 -> NULL(), 

    RB6_Interrupt_Handular_HIGH	PTR FTN()void  size(2) Largest target is 1
		 -> NULL(), 

    RB5_Interrupt_Handular_LOW	PTR FTN()void  size(2) Largest target is 1
		 -> NULL(), 

    RB5_Interrupt_Handular_HIGH	PTR FTN()void  size(2) Largest target is 1
		 -> NULL(), 

    RB4_Interrupt_Handular_LOW	PTR FTN()void  size(2) Largest target is 1
		 -> NULL(), 

    RB4_Interrupt_Handular_HIGH	PTR FTN()void  size(2) Largest target is 1
		 -> NULL(), 

    S1375$Ext_Intterrupt_LOW	PTR FTN()void  size(2) Largest target is 0

    Interrupt_RBx_Initialization@int_obj.Ext_Intterrupt_LOW	PTR FTN()void  size(2) Largest target is 0

    S1375$Ext_Intterrupt_HIGH	PTR FTN()void  size(2) Largest target is 0

    Interrupt_RBx_Initialization@int_obj.Ext_Intterrupt_HIGH	PTR FTN()void  size(2) Largest target is 0

    port_registers	PTR volatile unsigned char [5] size(2) Largest target is 1
		 -> PORTE(BITBIGSFRlllll[1]), PORTD(BITBIGSFRlllll[1]), PORTC(BITBIGSFRlllll[1]), PORTB(BITBIGSFRlllll[1]), 
		 -> PORTA(BITBIGSFRlllll[1]), 

    lat_registers	PTR volatile unsigned char [5] size(2) Largest target is 1
		 -> LATE(BITBIGSFRllllh[1]), LATD(BITBIGSFRllllh[1]), LATC(BITBIGSFRllllh[1]), LATB(BITBIGSFRllllh[1]), 
		 -> LATA(BITBIGSFRlllll[1]), 

    tris_registers	PTR volatile unsigned char [5] size(2) Largest target is 1
		 -> TRISD(ABS[1]), TRISC(ABS[1]), TRISB(ABS[1]), TRISE(ABS[1]), 
		 -> TRISA(BITBIGSFRlllll[1]), 

    select_voltage_reference@_adc_obj.ADC_INTERRUPTHUNDLER	PTR FTN()void  size(2) Largest target is 0

    select_result_format@_adc_obj.ADC_INTERRUPTHUNDLER	PTR FTN()void  size(2) Largest target is 0

    ADC_GetConversion_Result@_adc_obj.ADC_INTERRUPTHUNDLER	PTR FTN()void  size(2) Largest target is 0

    ADC_Interrupt_Handular	PTR FTN()void  size(2) Largest target is 1
		 -> NULL(), 

    S725$ADC_INTERRUPTHUNDLER	PTR FTN()void  size(2) Largest target is 0

    ADC_Init@_adc_obj.ADC_INTERRUPTHUNDLER	PTR FTN()void  size(2) Largest target is 0

    sp__memset	PTR void  size(2) Largest target is 0

    keypad_btn_values	PTR const unsigned char [4][4] size(3) Largest target is 65535
		 -> ROM(CODE[65535]), 


Critical Paths under _main in COMRAM

    _main->_timer3_timer_init
    _timer3_timer_init->_Timer3_Init
    _timer3_counter_init->_Timer3_Init
    _Timer3_Init->_Timer3_Mode_Select

Critical Paths under _Interrupt_Manager in COMRAM

    _Interrupt_Manager->_RB4_ISR
    _Interrupt_Manager->_RB5_ISR
    _Interrupt_Manager->_RB6_ISR
    _Interrupt_Manager->_RB7_ISR

Critical Paths under _main in BANK0

    None.

Critical Paths under _Interrupt_Manager in BANK0

    None.

Critical Paths under _main in BANK1

    None.

Critical Paths under _Interrupt_Manager in BANK1

    None.

Critical Paths under _main in BANK2

    None.

Critical Paths under _Interrupt_Manager in BANK2

    None.

Critical Paths under _main in BANK3

    None.

Critical Paths under _Interrupt_Manager in BANK3

    None.

Critical Paths under _main in BANK4

    None.

Critical Paths under _Interrupt_Manager in BANK4

    None.

Critical Paths under _main in BANK5

    None.

Critical Paths under _Interrupt_Manager in BANK5

    None.

Critical Paths under _main in BANK6

    None.

Critical Paths under _Interrupt_Manager in BANK6

    None.

Critical Paths under _main in BANK7

    None.

Critical Paths under _Interrupt_Manager in BANK7

    None.

Critical Paths under _main in BANK8

    None.

Critical Paths under _Interrupt_Manager in BANK8

    None.

Critical Paths under _main in BANK9

    None.

Critical Paths under _Interrupt_Manager in BANK9

    None.

Critical Paths under _main in BANK10

    None.

Critical Paths under _Interrupt_Manager in BANK10

    None.

Critical Paths under _main in BANK11

    None.

Critical Paths under _Interrupt_Manager in BANK11

    None.

Critical Paths under _main in BANK12

    None.

Critical Paths under _Interrupt_Manager in BANK12

    None.

Critical Paths under _main in BANK13

    None.

Critical Paths under _Interrupt_Manager in BANK13

    None.

Critical Paths under _main in BANK14

    None.

Critical Paths under _Interrupt_Manager in BANK14

    None.

Critical Paths under _main in BANK15

    None.

Critical Paths under _Interrupt_Manager in BANK15

    None.

Call Graph Tables:

 ---------------------------------------------------------------------------------
 (Depth) Function   	        Calls       Base Space   Used Autos Params    Refs
 ---------------------------------------------------------------------------------
 (0) _main                                                 1     1      0    1373
                  _Timer3_Read_Value
                _timer3_counter_init
                  _timer3_timer_init
 ---------------------------------------------------------------------------------
 (1) _timer3_timer_init                                    7     7      0     603
                                              9 COMRAM     7     7      0
                        _Timer3_Init
 ---------------------------------------------------------------------------------
 (1) _timer3_counter_init                                  0     0      0     478
                        _Timer3_Init
 ---------------------------------------------------------------------------------
 (2) _Timer3_Init                                          5     3      2     478
                                              5 COMRAM     4     2      2
                 _Timer3_Mode_Select
 ---------------------------------------------------------------------------------
 (3) _Timer3_Mode_Select                                   2     0      2     164
                                              3 COMRAM     2     0      2
 ---------------------------------------------------------------------------------
 (1) _Timer3_Read_Value                                    9     5      4     290
                                              3 COMRAM     9     5      4
 ---------------------------------------------------------------------------------
 Estimated maximum stack depth 3
 ---------------------------------------------------------------------------------
 (Depth) Function   	        Calls       Base Space   Used Autos Params    Refs
 ---------------------------------------------------------------------------------
 (4) _Interrupt_Manager                                    2     2      0     120
                                              1 COMRAM     2     2      0
                            _ADC_ISR
                           _INT0_ISR
                           _INT1_ISR
                           _INT2_ISR
                            _RB4_ISR
                            _RB5_ISR
                            _RB6_ISR
                            _RB7_ISR
                         _TIMER0_ISR
                         _TIMER1_ISR
                         _TIMER2_ISR
                         _TIMER3_ISR
 ---------------------------------------------------------------------------------
 (5) _TIMER3_ISR                                           0     0      0       0
                                NULL *
 _Timer3_Defualt_Interrupt_Hundeller *
 ---------------------------------------------------------------------------------
 (6) _Timer3_Defualt_Interrupt_Hundeller                   0     0      0       0
 ---------------------------------------------------------------------------------
 (6) NULL(Fake)                                            0     0      0       0
 ---------------------------------------------------------------------------------
 (5) _TIMER2_ISR                                           0     0      0       0
 ---------------------------------------------------------------------------------
 (5) _TIMER1_ISR                                           0     0      0       0
 ---------------------------------------------------------------------------------
 (5) _TIMER0_ISR                                           0     0      0       0
 ---------------------------------------------------------------------------------
 (5) _RB7_ISR                                              1     1      0      30
                                              0 COMRAM     1     1      0
 ---------------------------------------------------------------------------------
 (5) _RB6_ISR                                              1     1      0      30
                                              0 COMRAM     1     1      0
 ---------------------------------------------------------------------------------
 (5) _RB5_ISR                                              1     1      0      30
                                              0 COMRAM     1     1      0
 ---------------------------------------------------------------------------------
 (5) _RB4_ISR                                              1     1      0      30
                                              0 COMRAM     1     1      0
 ---------------------------------------------------------------------------------
 (5) _INT2_ISR                                             0     0      0       0
 ---------------------------------------------------------------------------------
 (5) _INT1_ISR                                             0     0      0       0
 ---------------------------------------------------------------------------------
 (5) _INT0_ISR                                             0     0      0       0
 ---------------------------------------------------------------------------------
 (5) _ADC_ISR                                              0     0      0       0
 ---------------------------------------------------------------------------------
 Estimated maximum stack depth 6
 ---------------------------------------------------------------------------------

 Call Graph Graphs:

 _main (ROOT)
   _Timer3_Read_Value
   _timer3_counter_init
     _Timer3_Init
       _Timer3_Mode_Select
   _timer3_timer_init
     _Timer3_Init

 _Interrupt_Manager (ROOT)
   _ADC_ISR
   _INT0_ISR
   _INT1_ISR
   _INT2_ISR
   _RB4_ISR
   _RB5_ISR
   _RB6_ISR
   _RB7_ISR
   _TIMER0_ISR
   _TIMER1_ISR
   _TIMER2_ISR
   _TIMER3_ISR
     NULL(Fake) *
     _Timer3_Defualt_Interrupt_Hundeller *

 Address spaces:
Name               Size   Autos  Total    Cost      Usage
BIGRAM             F7F      0       0      49        0.0%
EEDATA             400      0       0       0        0.0%
BITBANK14          100      0       0      33        0.0%
BANK14             100      0       0      34        0.0%
BITBANK13          100      0       0      31        0.0%
BANK13             100      0       0      32        0.0%
BITBANK12          100      0       0      29        0.0%
BANK12             100      0       0      30        0.0%
BITBANK11          100      0       0      27        0.0%
BANK11             100      0       0      28        0.0%
BITBANK10          100      0       0      25        0.0%
BANK10             100      0       0      26        0.0%
BITBANK9           100      0       0      23        0.0%
BANK9              100      0       0      24        0.0%
BITBANK8           100      0       0      21        0.0%
BANK8              100      0       0      22        0.0%
BITBANK7           100      0       0      19        0.0%
BANK7              100      0       0      20        0.0%
BITBANK6           100      0       0      17        0.0%
BANK6              100      0       0      18        0.0%
BITBANK5           100      0       0      15        0.0%
BANK5              100      0       0      16        0.0%
BITBANK4           100      0       0      13        0.0%
BANK4              100      0       0      14        0.0%
BITBANK3           100      0       0      10        0.0%
BANK3              100      0       0      11        0.0%
BITBANK2           100      0       0       8        0.0%
BANK2              100      0       0       9        0.0%
BITBANK1           100      0       0       6        0.0%
BANK1              100      0       0       7        0.0%
BITBANK15           80      0       0      35        0.0%
BANK15              80      0       0      36        0.0%
BITBANK0            80      0       0       4        0.0%
BANK0               80      0      3A       5       45.3%
BITCOMRAM           7E      0       0       0        0.0%
COMRAM              7E     10      78       1       95.2%
BITBIGSFRhlhlhh     18      0       0      38        0.0%
BITBIGSFRhh          D      0       0      37        0.0%
BITBIGSFRllhhhh      C      0       0      42        0.0%
BITBIGSFRllhhl       6      0       0      43        0.0%
BITBIGSFRlllhh       6      0       0      46        0.0%
BITBIGSFRhlhllh      5      0       0      39        0.0%
BITBIGSFRhlhlll      5      0       0      41        0.0%
BITBIGSFRllhllh      4      0       0      44        0.0%
BITBIGSFRllllh       4      0       0      47        0.0%
BITBIGSFRlllll       4      0       0      48        0.0%
BITBIGSFRhlhlll      1      0       0      40        0.0%
BITBIGSFRllhlll      1      0       0      45        0.0%
BIGSFR               0      0       0     200        0.0%
BITSFR               0      0       0     200        0.0%
SFR                  0      0       0     200        0.0%
STACK                0      0       0       2        0.0%
NULL                 0      0       0       0        0.0%
ABS                  0      0      B2      12        0.0%
DATA                 0      0      B2       3        0.0%
CODE                 0      0       0       0        0.0%


Microchip Technology PIC18 Macro Assembler V2.41 build 20230208172133 
Symbol Table                                                                                   Fri Dec 01 20:46:59 2023

                       ??_Interrupt_Manager 006A                     _TMR2_Interrupt_Hundeler 000B  
                        _Timer3_Mode_Select 13E2                             __end_of_ADC_ISR 16C2  
                       led_initialize@F3048 0036                                         tosl 0FFD  
                                       wreg 0FE8                         ?_Timer3_Mode_Select 006C  
                           __end_of_RB4_ISR 168C                             __end_of_RB5_ISR 1672  
                           __end_of_RB6_ISR 1658                             __end_of_RB7_ISR 163E  
                                      l1112 1354                                        l1114 13E0  
                                      l1034 1622                                        l1131 14C2  
                                      l1141 145E                                        l1037 15B2  
                                      l1142 145E                                        l1127 1494  
                                      l4001 1468                                        l4003 147A  
                                      l4005 148C                                        l4007 149C  
                                      l4009 14C0                                        l3731 13FC  
                                      l3741 143E                                        l3733 1402  
                                      l3743 1458                                        l3735 141C  
                                      l3737 141E                                        l3729 13E2  
                                      l3739 1438                                        l3771 133E  
                                      l3781 13A2                                        l3773 1350  
                                      l4493 15DE                                        l3791 13DA  
                                      l3783 13B2                                        l3775 1356  
                                      l4495 15DE                                        l3793 13DC  
                                      l3785 13C6                                        l3777 1378  
                                      l3769 133E                                        l4497 15E2  
                                      l3795 13DE                                        l3787 13C8  
                                      l3779 1384                                        l4499 15E6  
                                      l3789 13CA                                        l3981 1614  
                                      l3973 1602                                        l3991 159A  
                                      l3983 1616                                        l3975 160A  
                                      l3993 15A2                                        l3985 158A  
                                      l3977 160E                                        l3995 15A4  
                                      l3987 1592                                        l3979 1610  
                                      l3997 15A6                                        l3989 1596  
                                      l3999 1460                                        STR_1 1001  
                                      STR_2 1004                                        _LATA 0F89  
                                      _LATB 0F8A                                        _LATC 0F8B  
                                      u2400 1350                                        _LATD 0F8C  
                                      u2401 134C                                        _LATE 0F8D  
                                      u2350 13FC                                        u2351 13F8  
                                      u2600 148C                                        u2360 141C  
                                      u2601 1488                                        u2361 1418  
                                      u2370 1438                                        u2371 1434  
                                      u2380 1458                                        u2381 1454  
                                      u2590 147A                                        u2591 1476  
                                      _TMR2 0FCC                   __end_of_Interrupt_Manager 133E  
                                      _led1 005E                                        _main 15DE  
                                      fsr2h 0FDA                                        indf2 0FDF  
                                      fsr1l 0FE1                                        fsr2l 0FD9  
                                      btemp 0079                                        start 000E  
                              ___param_bank 0000                        ??_Timer3_Mode_Select 006E  
                   Timer3_Read_Value@timer3 006C                                 ?_TIMER0_ISR 0069  
                               ?_TIMER1_ISR 0069                                 ?_TIMER2_ISR 0069  
                               ?_TIMER3_ISR 0069                            __end_of_INT0_ISR 16BE  
                          __end_of_INT1_ISR 16BA                            __end_of_INT2_ISR 16B6  
                                     ?_main 0069                                       _EEADR 0FA9  
                                     i2l800 1656                                       i2l458 16C0  
                                     i2l811 163C                                       i2l762 16B8  
                                     i2l757 16BC                                       i2l767 16B4  
                                     i2l871 10FA                                       i2l863 1032  
                                     i2l936 16A2                                       i2l881 124E  
                                     i2l873 113E                                       i2l865 1052  
                                     i2l778 168A                                       i2l891 1312  
                                     i2l883 1292                                       i2l875 1182  
                                     i2l867 1072                                       i2l789 1670  
                                     i2l885 12B2                                       i2l877 11C6  
                                     i2l869 10B6                                       i2l894 1332  
                                     i2l887 12D2                                       i2l879 120A  
                                     i2l889 12F2                                       _TMR0H 0FD7  
                                     _TMR1H 0FCF                                       _TMR0L 0FD6  
                                     _TMR1L 0FCE                                       _TMR3H 0FB3  
                                     _TMR3L 0FB2                                       _PORTA 0F80  
                                     _PORTB 0F81                                       _PORTC 0F82  
                                     _PORTD 0F83                                       _PORTE 0F84  
                                     _TRISA 0F92                                       _TRISB 0F93  
                                     _TRISC 0F94                                       _TRISD 0F95  
                                     _TRISE 0F96                                       _lcd_1 0063  
                                     _lcd_2 00B0                                       pclath 0FFA  
                                     pclatu 0FFB                                       tablat 0FF5  
                                     ttemp5 007A                                       ttemp6 007D  
                                     ttemp7 0081                                       status 0FD8  
                                     wtemp8 007A                 __end_of_timer3_counter_init 15B4  
                           __initialization 14C4                                __end_of_main 1602  
                  Timer3_Read_Value@l_tmr3h 0074                    Timer3_Read_Value@l_tmr3l 0073  
                             _counter3_flag 003E                                   ??_ADC_ISR 0069  
                             _lat_registers 004A                                      ??_main 0079  
                             __activetblptr 0003                            led_turn_on@F3053 0035  
                                 ??_RB4_ISR 0069                                   ??_RB5_ISR 0069  
                                 ??_RB6_ISR 0069                                   ??_RB7_ISR 0069  
                                    _ADRESH 0FC4                                      _EEADRH 0FAA  
                                    _ADRESL 0FC3                                      _EEDATA 0FA8  
                                    _EECON2 0FA7                         Relay_Turn_OFF@F3052 0030  
                                    i2l1015 1696                                      i2l1051 16B0  
                                    i2l2201 16BE                                      i2l1146 1588  
                                    i2l1091 16AA                                      i2l2301 1626  
                                    i2l2303 1628                                      i2l2241 16BA  
                                    i2l2315 1698                                      i2l2323 168C  
                                    i2l2331 16A4                                      i2l2253 16B2  
                                    i2l2261 1676                                      i2l2309 163C  
                                    i2l2317 169A                                      i2l2325 168E  
                                    i2l2341 155E                                      i2l2247 16B6  
                                    i2l2319 169E                                      i2l2327 1692  
                                    i2l2343 1570                                      i2l2335 1554  
                                    i2l2281 1670                                      i2l2273 165A  
                                    i2l2337 1556                                      i2l3401 1178  
                                    i2l2267 168A                                      i2l2259 1674  
                                    i2l2275 165C                                      i2l2339 155A  
                                    i2l3411 11BC                                      i2l3403 117C  
                                    i2l3421 1200                                      i2l3413 11C0  
                                    i2l3405 1190                                      i2l2295 1656  
                                    i2l2287 1640                                      i2l3431 1244  
                                    i2l3423 1204                                      i2l3415 11D4  
                                    i2l3407 119E                                      i2l3351 1012  
                                    i2l2289 1642                                      i2l3441 1288  
                                    i2l3433 1248                                      i2l3425 1218  
                                    i2l3417 11E2                                      i2l3409 11AC  
                                    i2l3361 1060                                      i2l3353 1020  
                                    i2l3451 12CE                                      i2l3443 128C  
                                    i2l3435 125C                                      i2l3427 1226  
                                    i2l3419 11F0                                      i2l3371 10AC  
                                    i2l3363 106E                                      i2l3355 102E  
                                    i2l1933 16AC                                      i2l3461 1320  
                                    i2l3453 12E0                                      i2l3445 12A0  
                                    i2l3437 126A                                      i2l3429 1234  
                                    i2l3381 10F0                                      i2l3373 10B0  
                                    i2l3365 1080                                      i2l3357 1040  
                                    i2l3463 132E                                      i2l3455 12EE  
                                    i2l3447 12AE                                      i2l3439 1278  
                                    i2l3391 1134                                      i2l3383 10F4  
                                    i2l3375 10C4                                      i2l3367 108E  
                                    i2l3359 104E                                      i2l3457 1300  
                                    i2l3449 12C0                                      i2l3393 1138  
                                    i2l3385 1108                                      i2l3377 10D2  
                                    i2l3369 109C                                      i2l3459 130E  
                                    i2l3395 114C                                      i2l3387 1116  
                                    i2l3379 10E0                                      i2l3397 115A  
                                    i2l3389 1124                                      i2l3399 1168  
                             ??_Timer3_Init 0070                 _RB6_Interrupt_Handular_HIGH 001D  
                                    clear_0 150A                                      isa$std 0001  
                              __pdataCOMRAM 0040                                __mediumconst 0000  
                                    tblptrh 0FF7                                      tblptrl 0FF6  
                                    tblptru 0FF8                            _timer2_preloaded 002F  
                                __accesstop 0080                     __end_of__initialization 1510  
                                 ?_INT0_ISR 0069                                   ?_INT1_ISR 0069  
                                 ?_INT2_ISR 0069                               ___rparam_used 0001  
                            __pcstackCOMRAM 0069                                __pidataBANK0 151A  
                             RB4_ISR@source 0069                         __end_of_Timer3_Init 13E2  
                         Timer3_Init@timer3 006E                               RB5_ISR@source 0069  
                _RB6_Interrupt_Handular_LOW 001B                     _INT0_Interrupt_Handular 002B  
                                ??_INT0_ISR 0069                                  ??_INT1_ISR 0069  
               convert_uint_16_string@F3199 0001                                  ??_INT2_ISR 0069  
                     Relay_Initialize@F3042 0032                               RB6_ISR@source 0069  
                         led_turn_off@F3058 0034                                ??_TIMER0_ISR 0069  
                              ??_TIMER1_ISR 0069       fp__Timer3_Defualt_Interrupt_Hundeller 0000  
__end_of_Timer3_Defualt_Interrupt_Hundeller 16B2        ??_Timer3_Defualt_Interrupt_Hundeller 0069  
       ?_Timer3_Defualt_Interrupt_Hundeller 0069          _Timer3_Defualt_Interrupt_Hundeller 16AC  
                              ??_TIMER2_ISR 0069                                ??_TIMER3_ISR 0069  
                                   _ADC_ISR 16BE                             led_toggle@F3063 0033  
                   _TMR1_Interrupt_Hundeler 0011                                     _RB4_ISR 1672  
                                   _RB5_ISR 1658                                     _RB6_ISR 163E  
                                   _RB7_ISR 1624                                     i2u50_48 1576  
                                   i2u50_49 1588                                     i2u45_40 1686  
                                   i2u45_41 1682                                     i2u46_40 166C  
                                   i2u46_41 1668                                     i2u47_40 1652  
                                   i2u47_41 164E                                     i2u48_40 1638  
                                   i2u48_41 1634                                     i2u49_40 1570  
                                   i2u49_41 156C                               RB7_ISR@source 0069  
                            _tris_registers 0054                          __end_of_TIMER0_ISR 16A4  
                        __end_of_TIMER1_ISR 1698                          __end_of_TIMER2_ISR 16AC  
                        __end_of_TIMER3_ISR 158A                                     __Hparam 0000  
                                   __Lparam 0000                                 _Timer3_Init 133E  
                              __psmallconst 1000                                     __pcinit 14C4  
                                   __ramtop 1000                                     __ptext0 15DE  
                                   __ptext1 1602                                     __ptext2 158A  
                                   __ptext3 133E                                     __ptext4 13E2  
                                   __ptext5 1460                                     __ptext7 1554  
                                   __ptext8 16AC                                     __ptext9 16A4  
                                 _T0CONbits 0FD5                                   _T1CONbits 0FCD  
                                 _T2CONbits 0FCA                                   _T3CONbits 0FB1  
                            __pintcode_body 1008                        end_of_initialization 1510  
                                   int_func 1008                                     postdec1 0FE5  
                                   postdec2 0FDD                                     postinc0 0FEE  
                                   postinc2 0FDE                                   _PORTBbits 0F81  
                         _Timer3_Read_Value 1460                          ?_Timer3_Read_Value 006C  
                         _timer3_timer_init 1602                 _RB4_Interrupt_Handular_HIGH 0025  
                        ?_timer3_timer_init 0069                         ??_Timer3_Read_Value 0070  
                    Timer3_Read_Value@value 006E                         ??_timer3_timer_init 0072  
               _RB7_Interrupt_Handular_HIGH 0019                               __pidataCOMRAM 15B4  
                            _timer0_preload 0013                              _timer1_preload 000F  
                 __end_of_Timer3_Read_Value 14C4                         start_initialization 14C4  
                            _timer3_preload 0007                             _counter3_object 0037  
                 __end_of_timer3_timer_init 1624                          Relay_Turn_ON@F3047 0031  
                               __pdataBANK0 0080                                    ?_ADC_ISR 0069  
                    _ADC_Interrupt_Handular 002D                                    ?_RB4_ISR 0069  
                                  ?_RB5_ISR 0069                                    ?_RB6_ISR 0069  
                                  ?_RB7_ISR 0069                                 __pbssCOMRAM 0001  
                      Timer3_Read_Value@ret 0072                  _RB5_Interrupt_Handular_LOW 001F  
                   _INT2_Interrupt_Handular 0027                                ?_Timer3_Init 006E  
                                 __pintcode 0008                     _TMR0_Interrupt_Hundeler 0015  
                   _TMR3_Interrupt_Hundeler 0009                                 __smallconst 1000  
            timer3_timer_init@timer3_object 0072                         _timer3_counter_init 158A  
                                  _INT0_ISR 16BA                                    _INT1_ISR 16B6  
                                  _INT2_ISR 16B2                                    _RB4_Flag 0062  
                                  _RB5_Flag 0061                                    _RB6_Flag 0060  
                                  _RB7_Flag 005F                                    _PIE1bits 0F9D  
                                  _PIE2bits 0FA0                  __end_of_Timer3_Mode_Select 1460  
                                  i2u200_40 12CE                                    i2u200_41 12CA  
                                  i2u201_40 12E0                                    i2u201_41 12DC  
                                  i2u202_40 12EE                                    i2u202_41 12EA  
                                  i2u203_40 1300                                    i2u203_41 12FC  
                                  i2u204_40 130E                                    i2u204_41 130A  
                                  i2u205_40 1320                                    i2u205_41 131C  
                                  i2u206_40 132E                                    i2u206_41 132A  
                                  i2u160_40 102E                                    i2u160_41 102A  
                                  i2u161_40 1040                                    i2u161_41 103C  
                                  i2u170_40 10D2                                    i2u162_40 104E  
                                  i2u170_41 10CE                                    i2u162_41 104A  
                                  i2u171_40 10E0                                    i2u163_40 1060  
                                  i2u171_41 10DC                                    i2u163_41 105C  
                                  i2u180_40 1178                                    i2u172_40 10F0  
                                  i2u164_40 106E                                    i2u180_41 1174  
                                  i2u172_41 10EC                                    i2u164_41 106A  
                                  i2u181_40 1190                                    i2u173_40 1108  
                                  i2u165_40 1080                                    i2u181_41 118C  
                                  i2u173_41 1104                                    i2u165_41 107C  
                                  i2u190_40 1226                                    i2u182_40 119E  
                                  i2u174_40 1116                                    i2u166_40 108E  
                                  i2u190_41 1222                                    i2u182_41 119A  
                                  i2u174_41 1112                                    i2u166_41 108A  
                                  i2u191_40 1234                                    i2u183_40 11AC  
                                  i2u175_40 1124                                    i2u167_40 109C  
                                  i2u159_40 1020                                    i2u191_41 1230  
                                  i2u183_41 11A8                                    i2u175_41 1120  
                                  i2u167_41 1098                                    i2u159_41 101C  
                                  i2u192_40 1244                                    i2u184_40 11BC  
                                  i2u176_40 1134                                    i2u168_40 10AC  
                                  i2u192_41 1240                                    i2u184_41 11B8  
                                  i2u176_41 1130                                    i2u168_41 10A8  
                                  i2u193_40 125C                                    i2u185_40 11D4  
                                  i2u177_40 114C                                    i2u169_40 10C4  
                                  i2u193_41 1258                                    i2u185_41 11D0  
                                  i2u177_41 1148                                    i2u169_41 10C0  
                                  _PIR1bits 0F9E                                    i2u194_40 126A  
                                  i2u186_40 11E2                                    i2u178_40 115A  
                                  i2u194_41 1266                                    i2u186_41 11DE  
                                  i2u178_41 1156                                    i2u195_40 1278  
                                  i2u187_40 11F0                                    i2u179_40 1168  
                                  i2u195_41 1274                                    i2u187_41 11EC  
                                  i2u179_41 1164                                    _PIR2bits 0FA1  
                                  i2u196_40 1288                                    i2u188_40 1200  
                                  i2u196_41 1284                                    i2u188_41 11FC  
                                  i2u197_40 12A0                                    i2u189_40 1218  
                                  i2u197_41 129C                                    i2u189_41 1214  
                                  i2u198_40 12AE                                    i2u198_41 12AA  
                                  i2u199_40 12C0                                    i2u199_41 12BC  
                         _keypad_btn_values 0080                        ?_timer3_counter_init 0069  
                                _ADCON0bits 0FC2                                  _ADCON1bits 0FC1  
                                _ADCON2bits 0FC0                                 _INTCON2bits 0FF1  
                               _INTCON3bits 0FF0                                   copy_data0 14D8  
                                 copy_data1 14F8                                  _EECON1bits 0FA6  
                                  __Hrparam 0000                                    __Lrparam 0000  
                     ??_timer3_counter_init 0072                                    __ptext10 168C  
                                  __ptext11 1698                                    __ptext20 0000  
                                  __ptext12 1624                                    __ptext13 163E  
                                  __ptext14 1658                                    __ptext15 1672  
                                  __ptext16 16B2                                    __ptext17 16B6  
                                  __ptext18 16BA                                    __ptext19 16BE  
               _RB5_Interrupt_Handular_HIGH 0021                                    isa$xinst 0000  
                                  int$flags 0079                                  _INTCONbits 0FF2  
                  Timer3_Mode_Select@timer3 006C                                    intlevel2 0000  
                                _TIMER0_ISR 1698                                  _TIMER1_ISR 168C  
                               _timer3_flag 000D                                  _TIMER2_ISR 16A4  
                                _TIMER3_ISR 1554                              _port_registers 0040  
                _RB4_Interrupt_Handular_LOW 0023                     _INT1_Interrupt_Handular 0029  
                _RB7_Interrupt_Handular_LOW 0017                           _Interrupt_Manager 0008  
                        ?_Interrupt_Manager 0069  
